

Microchip MPLAB XC8 Assembler V2.46 build 20240104201356 
                                                                                               Tue Nov 04 14:25:49 2025

Microchip MPLAB XC8 C Compiler v2.46 (Free license) build 20240104201356 Og1 
     1                           	processor	16F1936
     2                           	pagewidth 120
     3                           	opt	flic
     4                           	psect	idataBANK1,global,class=CODE,delta=2,noexec
     5                           	psect	cinit,global,class=CODE,merge=1,delta=2
     6                           	psect	bssCOMMON,global,class=COMMON,space=1,delta=1,noexec
     7                           	psect	bssBANK0,global,class=BANK0,space=1,delta=1,noexec
     8                           	psect	dataBANK1,global,class=BANK1,space=1,delta=1,noexec
     9                           	psect	inittext,global,class=CODE,delta=2
    10                           	psect	clrtext,global,class=CODE,delta=2
    11                           	psect	cstackCOMMON,global,class=COMMON,space=1,delta=1,noexec
    12                           	psect	cstackBANK0,global,class=BANK0,space=1,delta=1,noexec
    13                           	psect	maintext,global,class=CODE,merge=1,split=1,delta=2
    14                           	psect	text1,local,class=CODE,merge=1,delta=2
    15                           	psect	text2,local,class=CODE,merge=1,delta=2
    16                           	psect	text3,local,class=CODE,merge=1,delta=2
    17                           	psect	text4,local,class=CODE,merge=1,delta=2
    18                           	psect	text5,local,class=CODE,merge=1,delta=2
    19                           	psect	text6,local,class=CODE,merge=1,delta=2
    20                           	psect	text7,local,class=CODE,merge=1,delta=2
    21                           	psect	text8,local,class=CODE,merge=1,delta=2
    22                           	psect	text9,local,class=CODE,merge=1,delta=2
    23                           	psect	text10,local,class=CODE,merge=1,delta=2
    24                           	psect	text11,local,class=CODE,merge=1,delta=2
    25                           	psect	text12,local,class=CODE,merge=1,delta=2
    26                           	psect	text13,local,class=CODE,merge=1,delta=2
    27                           	psect	text14,local,class=CODE,merge=1,delta=2
    28                           	psect	text15,local,class=CODE,merge=1,delta=2
    29                           	psect	text16,local,class=CODE,merge=1,delta=2
    30                           	psect	text17,local,class=CODE,merge=1,delta=2
    31                           	psect	intentry,global,class=CODE,delta=2
    32                           	psect	text19,local,class=CODE,merge=1,delta=2
    33                           	psect	text20,local,class=CODE,merge=1,delta=2
    34                           	psect	text21,local,class=CODE,merge=1,delta=2
    35                           	psect	text22,local,class=CODE,merge=1,delta=2
    36                           	psect	text23,local,class=CODE,merge=1,delta=2
    37                           	psect	text24,local,class=CODE,merge=1,delta=2
    38                           	psect	config,global,abs,ovrld,class=CONFIG,space=4,delta=2,noexec
    39                           	dabs	1,0x7E,2
    40     0000                     
    41                           ; Version 2.20
    42                           ; Generated 12/02/2020 GMT
    43                           ; 
    44                           ; Copyright © 2020, Microchip Technology Inc. and its subsidiaries ("Microchip")
    45                           ; All rights reserved.
    46                           ; 
    47                           ; This software is developed by Microchip Technology Inc. and its subsidiaries ("Microch
      +                          ip").
    48                           ; 
    49                           ; Redistribution and use in source and binary forms, with or without modification, are
    50                           ; permitted provided that the following conditions are met:
    51                           ; 
    52                           ;     1. Redistributions of source code must retain the above copyright notice, this lis
      +                          t of
    53                           ;        conditions and the following disclaimer.
    54                           ; 
    55                           ;     2. Redistributions in binary form must reproduce the above copyright notice, this 
      +                          list
    56                           ;        of conditions and the following disclaimer in the documentation and/or other
    57                           ;        materials provided with the distribution.
    58                           ; 
    59                           ;     3. Microchip's name may not be used to endorse or promote products derived from th
      +                          is
    60                           ;        software without specific prior written permission.
    61                           ; 
    62                           ; THIS SOFTWARE IS PROVIDED BY MICROCHIP "AS IS" AND ANY EXPRESS OR IMPLIED WARRANTIES,
    63                           ; INCLUDING, BUT NOT LIMITED TO, THE IMPLIED WARRANTIES OF MERCHANTABILITY AND FITNESS F
      +                          OR
    64                           ; PURPOSE ARE DISCLAIMED.  IN NO EVENT SHALL MICROCHIP BE LIABLE FOR ANY DIRECT, INDIREC
      +                          T,
    65                           ; INCIDENTAL, SPECIAL, EXEMPLARY, OR CONSEQUENTIAL DAMAGES (INCLUDING BUT NOT LIMITED TO
    66                           ; PROCUREMENT OF SUBSTITUTE GOODS OR SERVICES; LOSS OF USE, DATA OR PROFITS; OR BUSINESS
    67                           ; INTERRUPTION) HOWSOEVER CAUSED AND ON ANY THEORY OF LIABILITY, WHETHER IN CONTRACT, ST
      +                          RICT
    68                           ; LIABILITY, OR TORT (INCLUDING NEGLIGENCE OR OTHERWISE) ARISING IN ANY WAY OUT OF THE U
      +                          SE OF
    69                           ; THIS SOFTWARE, EVEN IF ADVISED OF THE POSSIBILITY OF SUCH DAMAGE.
    70                           ; 
    71                           ; 
    72                           ; Code-generator required, PIC16F1936 Definitions
    73                           ; 
    74                           ; SFR Addresses
    75     0000                     	;# 
    76     0001                     	;# 
    77     0002                     	;# 
    78     0003                     	;# 
    79     0004                     	;# 
    80     0005                     	;# 
    81     0006                     	;# 
    82     0007                     	;# 
    83     0008                     	;# 
    84     0009                     	;# 
    85     000A                     	;# 
    86     000B                     	;# 
    87     000C                     	;# 
    88     000D                     	;# 
    89     000E                     	;# 
    90     0010                     	;# 
    91     0011                     	;# 
    92     0012                     	;# 
    93     0013                     	;# 
    94     0015                     	;# 
    95     0016                     	;# 
    96     0016                     	;# 
    97     0017                     	;# 
    98     0018                     	;# 
    99     0019                     	;# 
   100     001A                     	;# 
   101     001B                     	;# 
   102     001C                     	;# 
   103     001E                     	;# 
   104     001F                     	;# 
   105     008C                     	;# 
   106     008D                     	;# 
   107     008E                     	;# 
   108     0090                     	;# 
   109     0091                     	;# 
   110     0092                     	;# 
   111     0093                     	;# 
   112     0095                     	;# 
   113     0096                     	;# 
   114     0097                     	;# 
   115     0098                     	;# 
   116     0099                     	;# 
   117     009A                     	;# 
   118     009B                     	;# 
   119     009B                     	;# 
   120     009C                     	;# 
   121     009D                     	;# 
   122     009E                     	;# 
   123     010C                     	;# 
   124     010D                     	;# 
   125     010E                     	;# 
   126     0110                     	;# 
   127     0111                     	;# 
   128     0112                     	;# 
   129     0113                     	;# 
   130     0114                     	;# 
   131     0115                     	;# 
   132     0116                     	;# 
   133     0117                     	;# 
   134     0118                     	;# 
   135     0119                     	;# 
   136     011A                     	;# 
   137     011B                     	;# 
   138     011D                     	;# 
   139     018C                     	;# 
   140     018D                     	;# 
   141     0191                     	;# 
   142     0191                     	;# 
   143     0192                     	;# 
   144     0193                     	;# 
   145     0193                     	;# 
   146     0193                     	;# 
   147     0194                     	;# 
   148     0195                     	;# 
   149     0196                     	;# 
   150     0199                     	;# 
   151     019A                     	;# 
   152     019B                     	;# 
   153     019B                     	;# 
   154     019B                     	;# 
   155     019B                     	;# 
   156     019C                     	;# 
   157     019C                     	;# 
   158     019D                     	;# 
   159     019E                     	;# 
   160     019F                     	;# 
   161     020D                     	;# 
   162     0210                     	;# 
   163     0211                     	;# 
   164     0212                     	;# 
   165     0213                     	;# 
   166     0214                     	;# 
   167     0215                     	;# 
   168     0215                     	;# 
   169     0216                     	;# 
   170     0217                     	;# 
   171     0291                     	;# 
   172     0291                     	;# 
   173     0292                     	;# 
   174     0293                     	;# 
   175     0294                     	;# 
   176     0295                     	;# 
   177     0295                     	;# 
   178     0296                     	;# 
   179     0298                     	;# 
   180     0298                     	;# 
   181     0299                     	;# 
   182     029A                     	;# 
   183     029B                     	;# 
   184     029C                     	;# 
   185     029C                     	;# 
   186     029D                     	;# 
   187     029E                     	;# 
   188     029F                     	;# 
   189     0311                     	;# 
   190     0311                     	;# 
   191     0312                     	;# 
   192     0313                     	;# 
   193     0314                     	;# 
   194     0315                     	;# 
   195     0315                     	;# 
   196     0316                     	;# 
   197     0318                     	;# 
   198     0318                     	;# 
   199     0319                     	;# 
   200     031A                     	;# 
   201     031C                     	;# 
   202     031C                     	;# 
   203     031D                     	;# 
   204     031E                     	;# 
   205     0394                     	;# 
   206     0395                     	;# 
   207     0396                     	;# 
   208     0415                     	;# 
   209     0416                     	;# 
   210     0417                     	;# 
   211     041C                     	;# 
   212     041D                     	;# 
   213     041E                     	;# 
   214     0791                     	;# 
   215     0792                     	;# 
   216     0793                     	;# 
   217     0794                     	;# 
   218     0795                     	;# 
   219     0798                     	;# 
   220     0799                     	;# 
   221     07A0                     	;# 
   222     07A1                     	;# 
   223     07A3                     	;# 
   224     07A4                     	;# 
   225     07A6                     	;# 
   226     07A7                     	;# 
   227     07A9                     	;# 
   228     07AA                     	;# 
   229     0FE4                     	;# 
   230     0FE5                     	;# 
   231     0FE6                     	;# 
   232     0FE7                     	;# 
   233     0FE8                     	;# 
   234     0FE9                     	;# 
   235     0FEA                     	;# 
   236     0FEB                     	;# 
   237     0FED                     	;# 
   238     0FEE                     	;# 
   239     0FEF                     	;# 
   240     0000                     	;# 
   241     0001                     	;# 
   242     0002                     	;# 
   243     0003                     	;# 
   244     0004                     	;# 
   245     0005                     	;# 
   246     0006                     	;# 
   247     0007                     	;# 
   248     0008                     	;# 
   249     0009                     	;# 
   250     000A                     	;# 
   251     000B                     	;# 
   252     000C                     	;# 
   253     000D                     	;# 
   254     000E                     	;# 
   255     0010                     	;# 
   256     0011                     	;# 
   257     0012                     	;# 
   258     0013                     	;# 
   259     0015                     	;# 
   260     0016                     	;# 
   261     0016                     	;# 
   262     0017                     	;# 
   263     0018                     	;# 
   264     0019                     	;# 
   265     001A                     	;# 
   266     001B                     	;# 
   267     001C                     	;# 
   268     001E                     	;# 
   269     001F                     	;# 
   270     008C                     	;# 
   271     008D                     	;# 
   272     008E                     	;# 
   273     0090                     	;# 
   274     0091                     	;# 
   275     0092                     	;# 
   276     0093                     	;# 
   277     0095                     	;# 
   278     0096                     	;# 
   279     0097                     	;# 
   280     0098                     	;# 
   281     0099                     	;# 
   282     009A                     	;# 
   283     009B                     	;# 
   284     009B                     	;# 
   285     009C                     	;# 
   286     009D                     	;# 
   287     009E                     	;# 
   288     010C                     	;# 
   289     010D                     	;# 
   290     010E                     	;# 
   291     0110                     	;# 
   292     0111                     	;# 
   293     0112                     	;# 
   294     0113                     	;# 
   295     0114                     	;# 
   296     0115                     	;# 
   297     0116                     	;# 
   298     0117                     	;# 
   299     0118                     	;# 
   300     0119                     	;# 
   301     011A                     	;# 
   302     011B                     	;# 
   303     011D                     	;# 
   304     018C                     	;# 
   305     018D                     	;# 
   306     0191                     	;# 
   307     0191                     	;# 
   308     0192                     	;# 
   309     0193                     	;# 
   310     0193                     	;# 
   311     0193                     	;# 
   312     0194                     	;# 
   313     0195                     	;# 
   314     0196                     	;# 
   315     0199                     	;# 
   316     019A                     	;# 
   317     019B                     	;# 
   318     019B                     	;# 
   319     019B                     	;# 
   320     019B                     	;# 
   321     019C                     	;# 
   322     019C                     	;# 
   323     019D                     	;# 
   324     019E                     	;# 
   325     019F                     	;# 
   326     020D                     	;# 
   327     0210                     	;# 
   328     0211                     	;# 
   329     0212                     	;# 
   330     0213                     	;# 
   331     0214                     	;# 
   332     0215                     	;# 
   333     0215                     	;# 
   334     0216                     	;# 
   335     0217                     	;# 
   336     0291                     	;# 
   337     0291                     	;# 
   338     0292                     	;# 
   339     0293                     	;# 
   340     0294                     	;# 
   341     0295                     	;# 
   342     0295                     	;# 
   343     0296                     	;# 
   344     0298                     	;# 
   345     0298                     	;# 
   346     0299                     	;# 
   347     029A                     	;# 
   348     029B                     	;# 
   349     029C                     	;# 
   350     029C                     	;# 
   351     029D                     	;# 
   352     029E                     	;# 
   353     029F                     	;# 
   354     0311                     	;# 
   355     0311                     	;# 
   356     0312                     	;# 
   357     0313                     	;# 
   358     0314                     	;# 
   359     0315                     	;# 
   360     0315                     	;# 
   361     0316                     	;# 
   362     0318                     	;# 
   363     0318                     	;# 
   364     0319                     	;# 
   365     031A                     	;# 
   366     031C                     	;# 
   367     031C                     	;# 
   368     031D                     	;# 
   369     031E                     	;# 
   370     0394                     	;# 
   371     0395                     	;# 
   372     0396                     	;# 
   373     0415                     	;# 
   374     0416                     	;# 
   375     0417                     	;# 
   376     041C                     	;# 
   377     041D                     	;# 
   378     041E                     	;# 
   379     0791                     	;# 
   380     0792                     	;# 
   381     0793                     	;# 
   382     0794                     	;# 
   383     0795                     	;# 
   384     0798                     	;# 
   385     0799                     	;# 
   386     07A0                     	;# 
   387     07A1                     	;# 
   388     07A3                     	;# 
   389     07A4                     	;# 
   390     07A6                     	;# 
   391     07A7                     	;# 
   392     07A9                     	;# 
   393     07AA                     	;# 
   394     0FE4                     	;# 
   395     0FE5                     	;# 
   396     0FE6                     	;# 
   397     0FE7                     	;# 
   398     0FE8                     	;# 
   399     0FE9                     	;# 
   400     0FEA                     	;# 
   401     0FEB                     	;# 
   402     0FED                     	;# 
   403     0FEE                     	;# 
   404     0FEF                     	;# 
   405     0000                     	;# 
   406     0001                     	;# 
   407     0002                     	;# 
   408     0003                     	;# 
   409     0004                     	;# 
   410     0005                     	;# 
   411     0006                     	;# 
   412     0007                     	;# 
   413     0008                     	;# 
   414     0009                     	;# 
   415     000A                     	;# 
   416     000B                     	;# 
   417     000C                     	;# 
   418     000D                     	;# 
   419     000E                     	;# 
   420     0010                     	;# 
   421     0011                     	;# 
   422     0012                     	;# 
   423     0013                     	;# 
   424     0015                     	;# 
   425     0016                     	;# 
   426     0016                     	;# 
   427     0017                     	;# 
   428     0018                     	;# 
   429     0019                     	;# 
   430     001A                     	;# 
   431     001B                     	;# 
   432     001C                     	;# 
   433     001E                     	;# 
   434     001F                     	;# 
   435     008C                     	;# 
   436     008D                     	;# 
   437     008E                     	;# 
   438     0090                     	;# 
   439     0091                     	;# 
   440     0092                     	;# 
   441     0093                     	;# 
   442     0095                     	;# 
   443     0096                     	;# 
   444     0097                     	;# 
   445     0098                     	;# 
   446     0099                     	;# 
   447     009A                     	;# 
   448     009B                     	;# 
   449     009B                     	;# 
   450     009C                     	;# 
   451     009D                     	;# 
   452     009E                     	;# 
   453     010C                     	;# 
   454     010D                     	;# 
   455     010E                     	;# 
   456     0110                     	;# 
   457     0111                     	;# 
   458     0112                     	;# 
   459     0113                     	;# 
   460     0114                     	;# 
   461     0115                     	;# 
   462     0116                     	;# 
   463     0117                     	;# 
   464     0118                     	;# 
   465     0119                     	;# 
   466     011A                     	;# 
   467     011B                     	;# 
   468     011D                     	;# 
   469     018C                     	;# 
   470     018D                     	;# 
   471     0191                     	;# 
   472     0191                     	;# 
   473     0192                     	;# 
   474     0193                     	;# 
   475     0193                     	;# 
   476     0193                     	;# 
   477     0194                     	;# 
   478     0195                     	;# 
   479     0196                     	;# 
   480     0199                     	;# 
   481     019A                     	;# 
   482     019B                     	;# 
   483     019B                     	;# 
   484     019B                     	;# 
   485     019B                     	;# 
   486     019C                     	;# 
   487     019C                     	;# 
   488     019D                     	;# 
   489     019E                     	;# 
   490     019F                     	;# 
   491     020D                     	;# 
   492     0210                     	;# 
   493     0211                     	;# 
   494     0212                     	;# 
   495     0213                     	;# 
   496     0214                     	;# 
   497     0215                     	;# 
   498     0215                     	;# 
   499     0216                     	;# 
   500     0217                     	;# 
   501     0291                     	;# 
   502     0291                     	;# 
   503     0292                     	;# 
   504     0293                     	;# 
   505     0294                     	;# 
   506     0295                     	;# 
   507     0295                     	;# 
   508     0296                     	;# 
   509     0298                     	;# 
   510     0298                     	;# 
   511     0299                     	;# 
   512     029A                     	;# 
   513     029B                     	;# 
   514     029C                     	;# 
   515     029C                     	;# 
   516     029D                     	;# 
   517     029E                     	;# 
   518     029F                     	;# 
   519     0311                     	;# 
   520     0311                     	;# 
   521     0312                     	;# 
   522     0313                     	;# 
   523     0314                     	;# 
   524     0315                     	;# 
   525     0315                     	;# 
   526     0316                     	;# 
   527     0318                     	;# 
   528     0318                     	;# 
   529     0319                     	;# 
   530     031A                     	;# 
   531     031C                     	;# 
   532     031C                     	;# 
   533     031D                     	;# 
   534     031E                     	;# 
   535     0394                     	;# 
   536     0395                     	;# 
   537     0396                     	;# 
   538     0415                     	;# 
   539     0416                     	;# 
   540     0417                     	;# 
   541     041C                     	;# 
   542     041D                     	;# 
   543     041E                     	;# 
   544     0791                     	;# 
   545     0792                     	;# 
   546     0793                     	;# 
   547     0794                     	;# 
   548     0795                     	;# 
   549     0798                     	;# 
   550     0799                     	;# 
   551     07A0                     	;# 
   552     07A1                     	;# 
   553     07A3                     	;# 
   554     07A4                     	;# 
   555     07A6                     	;# 
   556     07A7                     	;# 
   557     07A9                     	;# 
   558     07AA                     	;# 
   559     0FE4                     	;# 
   560     0FE5                     	;# 
   561     0FE6                     	;# 
   562     0FE7                     	;# 
   563     0FE8                     	;# 
   564     0FE9                     	;# 
   565     0FEA                     	;# 
   566     0FEB                     	;# 
   567     0FED                     	;# 
   568     0FEE                     	;# 
   569     0FEF                     	;# 
   570     0000                     	;# 
   571     0001                     	;# 
   572     0002                     	;# 
   573     0003                     	;# 
   574     0004                     	;# 
   575     0005                     	;# 
   576     0006                     	;# 
   577     0007                     	;# 
   578     0008                     	;# 
   579     0009                     	;# 
   580     000A                     	;# 
   581     000B                     	;# 
   582     000C                     	;# 
   583     000D                     	;# 
   584     000E                     	;# 
   585     0010                     	;# 
   586     0011                     	;# 
   587     0012                     	;# 
   588     0013                     	;# 
   589     0015                     	;# 
   590     0016                     	;# 
   591     0016                     	;# 
   592     0017                     	;# 
   593     0018                     	;# 
   594     0019                     	;# 
   595     001A                     	;# 
   596     001B                     	;# 
   597     001C                     	;# 
   598     001E                     	;# 
   599     001F                     	;# 
   600     008C                     	;# 
   601     008D                     	;# 
   602     008E                     	;# 
   603     0090                     	;# 
   604     0091                     	;# 
   605     0092                     	;# 
   606     0093                     	;# 
   607     0095                     	;# 
   608     0096                     	;# 
   609     0097                     	;# 
   610     0098                     	;# 
   611     0099                     	;# 
   612     009A                     	;# 
   613     009B                     	;# 
   614     009B                     	;# 
   615     009C                     	;# 
   616     009D                     	;# 
   617     009E                     	;# 
   618     010C                     	;# 
   619     010D                     	;# 
   620     010E                     	;# 
   621     0110                     	;# 
   622     0111                     	;# 
   623     0112                     	;# 
   624     0113                     	;# 
   625     0114                     	;# 
   626     0115                     	;# 
   627     0116                     	;# 
   628     0117                     	;# 
   629     0118                     	;# 
   630     0119                     	;# 
   631     011A                     	;# 
   632     011B                     	;# 
   633     011D                     	;# 
   634     018C                     	;# 
   635     018D                     	;# 
   636     0191                     	;# 
   637     0191                     	;# 
   638     0192                     	;# 
   639     0193                     	;# 
   640     0193                     	;# 
   641     0193                     	;# 
   642     0194                     	;# 
   643     0195                     	;# 
   644     0196                     	;# 
   645     0199                     	;# 
   646     019A                     	;# 
   647     019B                     	;# 
   648     019B                     	;# 
   649     019B                     	;# 
   650     019B                     	;# 
   651     019C                     	;# 
   652     019C                     	;# 
   653     019D                     	;# 
   654     019E                     	;# 
   655     019F                     	;# 
   656     020D                     	;# 
   657     0210                     	;# 
   658     0211                     	;# 
   659     0212                     	;# 
   660     0213                     	;# 
   661     0214                     	;# 
   662     0215                     	;# 
   663     0215                     	;# 
   664     0216                     	;# 
   665     0217                     	;# 
   666     0291                     	;# 
   667     0291                     	;# 
   668     0292                     	;# 
   669     0293                     	;# 
   670     0294                     	;# 
   671     0295                     	;# 
   672     0295                     	;# 
   673     0296                     	;# 
   674     0298                     	;# 
   675     0298                     	;# 
   676     0299                     	;# 
   677     029A                     	;# 
   678     029B                     	;# 
   679     029C                     	;# 
   680     029C                     	;# 
   681     029D                     	;# 
   682     029E                     	;# 
   683     029F                     	;# 
   684     0311                     	;# 
   685     0311                     	;# 
   686     0312                     	;# 
   687     0313                     	;# 
   688     0314                     	;# 
   689     0315                     	;# 
   690     0315                     	;# 
   691     0316                     	;# 
   692     0318                     	;# 
   693     0318                     	;# 
   694     0319                     	;# 
   695     031A                     	;# 
   696     031C                     	;# 
   697     031C                     	;# 
   698     031D                     	;# 
   699     031E                     	;# 
   700     0394                     	;# 
   701     0395                     	;# 
   702     0396                     	;# 
   703     0415                     	;# 
   704     0416                     	;# 
   705     0417                     	;# 
   706     041C                     	;# 
   707     041D                     	;# 
   708     041E                     	;# 
   709     0791                     	;# 
   710     0792                     	;# 
   711     0793                     	;# 
   712     0794                     	;# 
   713     0795                     	;# 
   714     0798                     	;# 
   715     0799                     	;# 
   716     07A0                     	;# 
   717     07A1                     	;# 
   718     07A3                     	;# 
   719     07A4                     	;# 
   720     07A6                     	;# 
   721     07A7                     	;# 
   722     07A9                     	;# 
   723     07AA                     	;# 
   724     0FE4                     	;# 
   725     0FE5                     	;# 
   726     0FE6                     	;# 
   727     0FE7                     	;# 
   728     0FE8                     	;# 
   729     0FE9                     	;# 
   730     0FEA                     	;# 
   731     0FEB                     	;# 
   732     0FED                     	;# 
   733     0FEE                     	;# 
   734     0FEF                     	;# 
   735     0000                     	;# 
   736     0001                     	;# 
   737     0002                     	;# 
   738     0003                     	;# 
   739     0004                     	;# 
   740     0005                     	;# 
   741     0006                     	;# 
   742     0007                     	;# 
   743     0008                     	;# 
   744     0009                     	;# 
   745     000A                     	;# 
   746     000B                     	;# 
   747     000C                     	;# 
   748     000D                     	;# 
   749     000E                     	;# 
   750     0010                     	;# 
   751     0011                     	;# 
   752     0012                     	;# 
   753     0013                     	;# 
   754     0015                     	;# 
   755     0016                     	;# 
   756     0016                     	;# 
   757     0017                     	;# 
   758     0018                     	;# 
   759     0019                     	;# 
   760     001A                     	;# 
   761     001B                     	;# 
   762     001C                     	;# 
   763     001E                     	;# 
   764     001F                     	;# 
   765     008C                     	;# 
   766     008D                     	;# 
   767     008E                     	;# 
   768     0090                     	;# 
   769     0091                     	;# 
   770     0092                     	;# 
   771     0093                     	;# 
   772     0095                     	;# 
   773     0096                     	;# 
   774     0097                     	;# 
   775     0098                     	;# 
   776     0099                     	;# 
   777     009A                     	;# 
   778     009B                     	;# 
   779     009B                     	;# 
   780     009C                     	;# 
   781     009D                     	;# 
   782     009E                     	;# 
   783     010C                     	;# 
   784     010D                     	;# 
   785     010E                     	;# 
   786     0110                     	;# 
   787     0111                     	;# 
   788     0112                     	;# 
   789     0113                     	;# 
   790     0114                     	;# 
   791     0115                     	;# 
   792     0116                     	;# 
   793     0117                     	;# 
   794     0118                     	;# 
   795     0119                     	;# 
   796     011A                     	;# 
   797     011B                     	;# 
   798     011D                     	;# 
   799     018C                     	;# 
   800     018D                     	;# 
   801     0191                     	;# 
   802     0191                     	;# 
   803     0192                     	;# 
   804     0193                     	;# 
   805     0193                     	;# 
   806     0193                     	;# 
   807     0194                     	;# 
   808     0195                     	;# 
   809     0196                     	;# 
   810     0199                     	;# 
   811     019A                     	;# 
   812     019B                     	;# 
   813     019B                     	;# 
   814     019B                     	;# 
   815     019B                     	;# 
   816     019C                     	;# 
   817     019C                     	;# 
   818     019D                     	;# 
   819     019E                     	;# 
   820     019F                     	;# 
   821     020D                     	;# 
   822     0210                     	;# 
   823     0211                     	;# 
   824     0212                     	;# 
   825     0213                     	;# 
   826     0214                     	;# 
   827     0215                     	;# 
   828     0215                     	;# 
   829     0216                     	;# 
   830     0217                     	;# 
   831     0291                     	;# 
   832     0291                     	;# 
   833     0292                     	;# 
   834     0293                     	;# 
   835     0294                     	;# 
   836     0295                     	;# 
   837     0295                     	;# 
   838     0296                     	;# 
   839     0298                     	;# 
   840     0298                     	;# 
   841     0299                     	;# 
   842     029A                     	;# 
   843     029B                     	;# 
   844     029C                     	;# 
   845     029C                     	;# 
   846     029D                     	;# 
   847     029E                     	;# 
   848     029F                     	;# 
   849     0311                     	;# 
   850     0311                     	;# 
   851     0312                     	;# 
   852     0313                     	;# 
   853     0314                     	;# 
   854     0315                     	;# 
   855     0315                     	;# 
   856     0316                     	;# 
   857     0318                     	;# 
   858     0318                     	;# 
   859     0319                     	;# 
   860     031A                     	;# 
   861     031C                     	;# 
   862     031C                     	;# 
   863     031D                     	;# 
   864     031E                     	;# 
   865     0394                     	;# 
   866     0395                     	;# 
   867     0396                     	;# 
   868     0415                     	;# 
   869     0416                     	;# 
   870     0417                     	;# 
   871     041C                     	;# 
   872     041D                     	;# 
   873     041E                     	;# 
   874     0791                     	;# 
   875     0792                     	;# 
   876     0793                     	;# 
   877     0794                     	;# 
   878     0795                     	;# 
   879     0798                     	;# 
   880     0799                     	;# 
   881     07A0                     	;# 
   882     07A1                     	;# 
   883     07A3                     	;# 
   884     07A4                     	;# 
   885     07A6                     	;# 
   886     07A7                     	;# 
   887     07A9                     	;# 
   888     07AA                     	;# 
   889     0FE4                     	;# 
   890     0FE5                     	;# 
   891     0FE6                     	;# 
   892     0FE7                     	;# 
   893     0FE8                     	;# 
   894     0FE9                     	;# 
   895     0FEA                     	;# 
   896     0FEB                     	;# 
   897     0FED                     	;# 
   898     0FEE                     	;# 
   899     0FEF                     	;# 
   900     0000                     	;# 
   901     0001                     	;# 
   902     0002                     	;# 
   903     0003                     	;# 
   904     0004                     	;# 
   905     0005                     	;# 
   906     0006                     	;# 
   907     0007                     	;# 
   908     0008                     	;# 
   909     0009                     	;# 
   910     000A                     	;# 
   911     000B                     	;# 
   912     000C                     	;# 
   913     000D                     	;# 
   914     000E                     	;# 
   915     0010                     	;# 
   916     0011                     	;# 
   917     0012                     	;# 
   918     0013                     	;# 
   919     0015                     	;# 
   920     0016                     	;# 
   921     0016                     	;# 
   922     0017                     	;# 
   923     0018                     	;# 
   924     0019                     	;# 
   925     001A                     	;# 
   926     001B                     	;# 
   927     001C                     	;# 
   928     001E                     	;# 
   929     001F                     	;# 
   930     008C                     	;# 
   931     008D                     	;# 
   932     008E                     	;# 
   933     0090                     	;# 
   934     0091                     	;# 
   935     0092                     	;# 
   936     0093                     	;# 
   937     0095                     	;# 
   938     0096                     	;# 
   939     0097                     	;# 
   940     0098                     	;# 
   941     0099                     	;# 
   942     009A                     	;# 
   943     009B                     	;# 
   944     009B                     	;# 
   945     009C                     	;# 
   946     009D                     	;# 
   947     009E                     	;# 
   948     010C                     	;# 
   949     010D                     	;# 
   950     010E                     	;# 
   951     0110                     	;# 
   952     0111                     	;# 
   953     0112                     	;# 
   954     0113                     	;# 
   955     0114                     	;# 
   956     0115                     	;# 
   957     0116                     	;# 
   958     0117                     	;# 
   959     0118                     	;# 
   960     0119                     	;# 
   961     011A                     	;# 
   962     011B                     	;# 
   963     011D                     	;# 
   964     018C                     	;# 
   965     018D                     	;# 
   966     0191                     	;# 
   967     0191                     	;# 
   968     0192                     	;# 
   969     0193                     	;# 
   970     0193                     	;# 
   971     0193                     	;# 
   972     0194                     	;# 
   973     0195                     	;# 
   974     0196                     	;# 
   975     0199                     	;# 
   976     019A                     	;# 
   977     019B                     	;# 
   978     019B                     	;# 
   979     019B                     	;# 
   980     019B                     	;# 
   981     019C                     	;# 
   982     019C                     	;# 
   983     019D                     	;# 
   984     019E                     	;# 
   985     019F                     	;# 
   986     020D                     	;# 
   987     0210                     	;# 
   988     0211                     	;# 
   989     0212                     	;# 
   990     0213                     	;# 
   991     0214                     	;# 
   992     0215                     	;# 
   993     0215                     	;# 
   994     0216                     	;# 
   995     0217                     	;# 
   996     0291                     	;# 
   997     0291                     	;# 
   998     0292                     	;# 
   999     0293                     	;# 
  1000     0294                     	;# 
  1001     0295                     	;# 
  1002     0295                     	;# 
  1003     0296                     	;# 
  1004     0298                     	;# 
  1005     0298                     	;# 
  1006     0299                     	;# 
  1007     029A                     	;# 
  1008     029B                     	;# 
  1009     029C                     	;# 
  1010     029C                     	;# 
  1011     029D                     	;# 
  1012     029E                     	;# 
  1013     029F                     	;# 
  1014     0311                     	;# 
  1015     0311                     	;# 
  1016     0312                     	;# 
  1017     0313                     	;# 
  1018     0314                     	;# 
  1019     0315                     	;# 
  1020     0315                     	;# 
  1021     0316                     	;# 
  1022     0318                     	;# 
  1023     0318                     	;# 
  1024     0319                     	;# 
  1025     031A                     	;# 
  1026     031C                     	;# 
  1027     031C                     	;# 
  1028     031D                     	;# 
  1029     031E                     	;# 
  1030     0394                     	;# 
  1031     0395                     	;# 
  1032     0396                     	;# 
  1033     0415                     	;# 
  1034     0416                     	;# 
  1035     0417                     	;# 
  1036     041C                     	;# 
  1037     041D                     	;# 
  1038     041E                     	;# 
  1039     0791                     	;# 
  1040     0792                     	;# 
  1041     0793                     	;# 
  1042     0794                     	;# 
  1043     0795                     	;# 
  1044     0798                     	;# 
  1045     0799                     	;# 
  1046     07A0                     	;# 
  1047     07A1                     	;# 
  1048     07A3                     	;# 
  1049     07A4                     	;# 
  1050     07A6                     	;# 
  1051     07A7                     	;# 
  1052     07A9                     	;# 
  1053     07AA                     	;# 
  1054     0FE4                     	;# 
  1055     0FE5                     	;# 
  1056     0FE6                     	;# 
  1057     0FE7                     	;# 
  1058     0FE8                     	;# 
  1059     0FE9                     	;# 
  1060     0FEA                     	;# 
  1061     0FEB                     	;# 
  1062     0FED                     	;# 
  1063     0FEE                     	;# 
  1064     0FEF                     	;# 
  1065     0000                     	;# 
  1066     0001                     	;# 
  1067     0002                     	;# 
  1068     0003                     	;# 
  1069     0004                     	;# 
  1070     0005                     	;# 
  1071     0006                     	;# 
  1072     0007                     	;# 
  1073     0008                     	;# 
  1074     0009                     	;# 
  1075     000A                     	;# 
  1076     000B                     	;# 
  1077     000C                     	;# 
  1078     000D                     	;# 
  1079     000E                     	;# 
  1080     0010                     	;# 
  1081     0011                     	;# 
  1082     0012                     	;# 
  1083     0013                     	;# 
  1084     0015                     	;# 
  1085     0016                     	;# 
  1086     0016                     	;# 
  1087     0017                     	;# 
  1088     0018                     	;# 
  1089     0019                     	;# 
  1090     001A                     	;# 
  1091     001B                     	;# 
  1092     001C                     	;# 
  1093     001E                     	;# 
  1094     001F                     	;# 
  1095     008C                     	;# 
  1096     008D                     	;# 
  1097     008E                     	;# 
  1098     0090                     	;# 
  1099     0091                     	;# 
  1100     0092                     	;# 
  1101     0093                     	;# 
  1102     0095                     	;# 
  1103     0096                     	;# 
  1104     0097                     	;# 
  1105     0098                     	;# 
  1106     0099                     	;# 
  1107     009A                     	;# 
  1108     009B                     	;# 
  1109     009B                     	;# 
  1110     009C                     	;# 
  1111     009D                     	;# 
  1112     009E                     	;# 
  1113     010C                     	;# 
  1114     010D                     	;# 
  1115     010E                     	;# 
  1116     0110                     	;# 
  1117     0111                     	;# 
  1118     0112                     	;# 
  1119     0113                     	;# 
  1120     0114                     	;# 
  1121     0115                     	;# 
  1122     0116                     	;# 
  1123     0117                     	;# 
  1124     0118                     	;# 
  1125     0119                     	;# 
  1126     011A                     	;# 
  1127     011B                     	;# 
  1128     011D                     	;# 
  1129     018C                     	;# 
  1130     018D                     	;# 
  1131     0191                     	;# 
  1132     0191                     	;# 
  1133     0192                     	;# 
  1134     0193                     	;# 
  1135     0193                     	;# 
  1136     0193                     	;# 
  1137     0194                     	;# 
  1138     0195                     	;# 
  1139     0196                     	;# 
  1140     0199                     	;# 
  1141     019A                     	;# 
  1142     019B                     	;# 
  1143     019B                     	;# 
  1144     019B                     	;# 
  1145     019B                     	;# 
  1146     019C                     	;# 
  1147     019C                     	;# 
  1148     019D                     	;# 
  1149     019E                     	;# 
  1150     019F                     	;# 
  1151     020D                     	;# 
  1152     0210                     	;# 
  1153     0211                     	;# 
  1154     0212                     	;# 
  1155     0213                     	;# 
  1156     0214                     	;# 
  1157     0215                     	;# 
  1158     0215                     	;# 
  1159     0216                     	;# 
  1160     0217                     	;# 
  1161     0291                     	;# 
  1162     0291                     	;# 
  1163     0292                     	;# 
  1164     0293                     	;# 
  1165     0294                     	;# 
  1166     0295                     	;# 
  1167     0295                     	;# 
  1168     0296                     	;# 
  1169     0298                     	;# 
  1170     0298                     	;# 
  1171     0299                     	;# 
  1172     029A                     	;# 
  1173     029B                     	;# 
  1174     029C                     	;# 
  1175     029C                     	;# 
  1176     029D                     	;# 
  1177     029E                     	;# 
  1178     029F                     	;# 
  1179     0311                     	;# 
  1180     0311                     	;# 
  1181     0312                     	;# 
  1182     0313                     	;# 
  1183     0314                     	;# 
  1184     0315                     	;# 
  1185     0315                     	;# 
  1186     0316                     	;# 
  1187     0318                     	;# 
  1188     0318                     	;# 
  1189     0319                     	;# 
  1190     031A                     	;# 
  1191     031C                     	;# 
  1192     031C                     	;# 
  1193     031D                     	;# 
  1194     031E                     	;# 
  1195     0394                     	;# 
  1196     0395                     	;# 
  1197     0396                     	;# 
  1198     0415                     	;# 
  1199     0416                     	;# 
  1200     0417                     	;# 
  1201     041C                     	;# 
  1202     041D                     	;# 
  1203     041E                     	;# 
  1204     0791                     	;# 
  1205     0792                     	;# 
  1206     0793                     	;# 
  1207     0794                     	;# 
  1208     0795                     	;# 
  1209     0798                     	;# 
  1210     0799                     	;# 
  1211     07A0                     	;# 
  1212     07A1                     	;# 
  1213     07A3                     	;# 
  1214     07A4                     	;# 
  1215     07A6                     	;# 
  1216     07A7                     	;# 
  1217     07A9                     	;# 
  1218     07AA                     	;# 
  1219     0FE4                     	;# 
  1220     0FE5                     	;# 
  1221     0FE6                     	;# 
  1222     0FE7                     	;# 
  1223     0FE8                     	;# 
  1224     0FE9                     	;# 
  1225     0FEA                     	;# 
  1226     0FEB                     	;# 
  1227     0FED                     	;# 
  1228     0FEE                     	;# 
  1229     0FEF                     	;# 
  1230     0000                     	;# 
  1231     0001                     	;# 
  1232     0002                     	;# 
  1233     0003                     	;# 
  1234     0004                     	;# 
  1235     0005                     	;# 
  1236     0006                     	;# 
  1237     0007                     	;# 
  1238     0008                     	;# 
  1239     0009                     	;# 
  1240     000A                     	;# 
  1241     000B                     	;# 
  1242     000C                     	;# 
  1243     000D                     	;# 
  1244     000E                     	;# 
  1245     0010                     	;# 
  1246     0011                     	;# 
  1247     0012                     	;# 
  1248     0013                     	;# 
  1249     0015                     	;# 
  1250     0016                     	;# 
  1251     0016                     	;# 
  1252     0017                     	;# 
  1253     0018                     	;# 
  1254     0019                     	;# 
  1255     001A                     	;# 
  1256     001B                     	;# 
  1257     001C                     	;# 
  1258     001E                     	;# 
  1259     001F                     	;# 
  1260     008C                     	;# 
  1261     008D                     	;# 
  1262     008E                     	;# 
  1263     0090                     	;# 
  1264     0091                     	;# 
  1265     0092                     	;# 
  1266     0093                     	;# 
  1267     0095                     	;# 
  1268     0096                     	;# 
  1269     0097                     	;# 
  1270     0098                     	;# 
  1271     0099                     	;# 
  1272     009A                     	;# 
  1273     009B                     	;# 
  1274     009B                     	;# 
  1275     009C                     	;# 
  1276     009D                     	;# 
  1277     009E                     	;# 
  1278     010C                     	;# 
  1279     010D                     	;# 
  1280     010E                     	;# 
  1281     0110                     	;# 
  1282     0111                     	;# 
  1283     0112                     	;# 
  1284     0113                     	;# 
  1285     0114                     	;# 
  1286     0115                     	;# 
  1287     0116                     	;# 
  1288     0117                     	;# 
  1289     0118                     	;# 
  1290     0119                     	;# 
  1291     011A                     	;# 
  1292     011B                     	;# 
  1293     011D                     	;# 
  1294     018C                     	;# 
  1295     018D                     	;# 
  1296     0191                     	;# 
  1297     0191                     	;# 
  1298     0192                     	;# 
  1299     0193                     	;# 
  1300     0193                     	;# 
  1301     0193                     	;# 
  1302     0194                     	;# 
  1303     0195                     	;# 
  1304     0196                     	;# 
  1305     0199                     	;# 
  1306     019A                     	;# 
  1307     019B                     	;# 
  1308     019B                     	;# 
  1309     019B                     	;# 
  1310     019B                     	;# 
  1311     019C                     	;# 
  1312     019C                     	;# 
  1313     019D                     	;# 
  1314     019E                     	;# 
  1315     019F                     	;# 
  1316     020D                     	;# 
  1317     0210                     	;# 
  1318     0211                     	;# 
  1319     0212                     	;# 
  1320     0213                     	;# 
  1321     0214                     	;# 
  1322     0215                     	;# 
  1323     0215                     	;# 
  1324     0216                     	;# 
  1325     0217                     	;# 
  1326     0291                     	;# 
  1327     0291                     	;# 
  1328     0292                     	;# 
  1329     0293                     	;# 
  1330     0294                     	;# 
  1331     0295                     	;# 
  1332     0295                     	;# 
  1333     0296                     	;# 
  1334     0298                     	;# 
  1335     0298                     	;# 
  1336     0299                     	;# 
  1337     029A                     	;# 
  1338     029B                     	;# 
  1339     029C                     	;# 
  1340     029C                     	;# 
  1341     029D                     	;# 
  1342     029E                     	;# 
  1343     029F                     	;# 
  1344     0311                     	;# 
  1345     0311                     	;# 
  1346     0312                     	;# 
  1347     0313                     	;# 
  1348     0314                     	;# 
  1349     0315                     	;# 
  1350     0315                     	;# 
  1351     0316                     	;# 
  1352     0318                     	;# 
  1353     0318                     	;# 
  1354     0319                     	;# 
  1355     031A                     	;# 
  1356     031C                     	;# 
  1357     031C                     	;# 
  1358     031D                     	;# 
  1359     031E                     	;# 
  1360     0394                     	;# 
  1361     0395                     	;# 
  1362     0396                     	;# 
  1363     0415                     	;# 
  1364     0416                     	;# 
  1365     0417                     	;# 
  1366     041C                     	;# 
  1367     041D                     	;# 
  1368     041E                     	;# 
  1369     0791                     	;# 
  1370     0792                     	;# 
  1371     0793                     	;# 
  1372     0794                     	;# 
  1373     0795                     	;# 
  1374     0798                     	;# 
  1375     0799                     	;# 
  1376     07A0                     	;# 
  1377     07A1                     	;# 
  1378     07A3                     	;# 
  1379     07A4                     	;# 
  1380     07A6                     	;# 
  1381     07A7                     	;# 
  1382     07A9                     	;# 
  1383     07AA                     	;# 
  1384     0FE4                     	;# 
  1385     0FE5                     	;# 
  1386     0FE6                     	;# 
  1387     0FE7                     	;# 
  1388     0FE8                     	;# 
  1389     0FE9                     	;# 
  1390     0FEA                     	;# 
  1391     0FEB                     	;# 
  1392     0FED                     	;# 
  1393     0FEE                     	;# 
  1394     0FEF                     	;# 
  1395     0000                     	;# 
  1396     0001                     	;# 
  1397     0002                     	;# 
  1398     0003                     	;# 
  1399     0004                     	;# 
  1400     0005                     	;# 
  1401     0006                     	;# 
  1402     0007                     	;# 
  1403     0008                     	;# 
  1404     0009                     	;# 
  1405     000A                     	;# 
  1406     000B                     	;# 
  1407     000C                     	;# 
  1408     000D                     	;# 
  1409     000E                     	;# 
  1410     0010                     	;# 
  1411     0011                     	;# 
  1412     0012                     	;# 
  1413     0013                     	;# 
  1414     0015                     	;# 
  1415     0016                     	;# 
  1416     0016                     	;# 
  1417     0017                     	;# 
  1418     0018                     	;# 
  1419     0019                     	;# 
  1420     001A                     	;# 
  1421     001B                     	;# 
  1422     001C                     	;# 
  1423     001E                     	;# 
  1424     001F                     	;# 
  1425     008C                     	;# 
  1426     008D                     	;# 
  1427     008E                     	;# 
  1428     0090                     	;# 
  1429     0091                     	;# 
  1430     0092                     	;# 
  1431     0093                     	;# 
  1432     0095                     	;# 
  1433     0096                     	;# 
  1434     0097                     	;# 
  1435     0098                     	;# 
  1436     0099                     	;# 
  1437     009A                     	;# 
  1438     009B                     	;# 
  1439     009B                     	;# 
  1440     009C                     	;# 
  1441     009D                     	;# 
  1442     009E                     	;# 
  1443     010C                     	;# 
  1444     010D                     	;# 
  1445     010E                     	;# 
  1446     0110                     	;# 
  1447     0111                     	;# 
  1448     0112                     	;# 
  1449     0113                     	;# 
  1450     0114                     	;# 
  1451     0115                     	;# 
  1452     0116                     	;# 
  1453     0117                     	;# 
  1454     0118                     	;# 
  1455     0119                     	;# 
  1456     011A                     	;# 
  1457     011B                     	;# 
  1458     011D                     	;# 
  1459     018C                     	;# 
  1460     018D                     	;# 
  1461     0191                     	;# 
  1462     0191                     	;# 
  1463     0192                     	;# 
  1464     0193                     	;# 
  1465     0193                     	;# 
  1466     0193                     	;# 
  1467     0194                     	;# 
  1468     0195                     	;# 
  1469     0196                     	;# 
  1470     0199                     	;# 
  1471     019A                     	;# 
  1472     019B                     	;# 
  1473     019B                     	;# 
  1474     019B                     	;# 
  1475     019B                     	;# 
  1476     019C                     	;# 
  1477     019C                     	;# 
  1478     019D                     	;# 
  1479     019E                     	;# 
  1480     019F                     	;# 
  1481     020D                     	;# 
  1482     0210                     	;# 
  1483     0211                     	;# 
  1484     0212                     	;# 
  1485     0213                     	;# 
  1486     0214                     	;# 
  1487     0215                     	;# 
  1488     0215                     	;# 
  1489     0216                     	;# 
  1490     0217                     	;# 
  1491     0291                     	;# 
  1492     0291                     	;# 
  1493     0292                     	;# 
  1494     0293                     	;# 
  1495     0294                     	;# 
  1496     0295                     	;# 
  1497     0295                     	;# 
  1498     0296                     	;# 
  1499     0298                     	;# 
  1500     0298                     	;# 
  1501     0299                     	;# 
  1502     029A                     	;# 
  1503     029B                     	;# 
  1504     029C                     	;# 
  1505     029C                     	;# 
  1506     029D                     	;# 
  1507     029E                     	;# 
  1508     029F                     	;# 
  1509     0311                     	;# 
  1510     0311                     	;# 
  1511     0312                     	;# 
  1512     0313                     	;# 
  1513     0314                     	;# 
  1514     0315                     	;# 
  1515     0315                     	;# 
  1516     0316                     	;# 
  1517     0318                     	;# 
  1518     0318                     	;# 
  1519     0319                     	;# 
  1520     031A                     	;# 
  1521     031C                     	;# 
  1522     031C                     	;# 
  1523     031D                     	;# 
  1524     031E                     	;# 
  1525     0394                     	;# 
  1526     0395                     	;# 
  1527     0396                     	;# 
  1528     0415                     	;# 
  1529     0416                     	;# 
  1530     0417                     	;# 
  1531     041C                     	;# 
  1532     041D                     	;# 
  1533     041E                     	;# 
  1534     0791                     	;# 
  1535     0792                     	;# 
  1536     0793                     	;# 
  1537     0794                     	;# 
  1538     0795                     	;# 
  1539     0798                     	;# 
  1540     0799                     	;# 
  1541     07A0                     	;# 
  1542     07A1                     	;# 
  1543     07A3                     	;# 
  1544     07A4                     	;# 
  1545     07A6                     	;# 
  1546     07A7                     	;# 
  1547     07A9                     	;# 
  1548     07AA                     	;# 
  1549     0FE4                     	;# 
  1550     0FE5                     	;# 
  1551     0FE6                     	;# 
  1552     0FE7                     	;# 
  1553     0FE8                     	;# 
  1554     0FE9                     	;# 
  1555     0FEA                     	;# 
  1556     0FEB                     	;# 
  1557     0FED                     	;# 
  1558     0FEE                     	;# 
  1559     0FEF                     	;# 
  1560     0000                     	;# 
  1561     0001                     	;# 
  1562     0002                     	;# 
  1563     0003                     	;# 
  1564     0004                     	;# 
  1565     0005                     	;# 
  1566     0006                     	;# 
  1567     0007                     	;# 
  1568     0008                     	;# 
  1569     0009                     	;# 
  1570     000A                     	;# 
  1571     000B                     	;# 
  1572     000C                     	;# 
  1573     000D                     	;# 
  1574     000E                     	;# 
  1575     0010                     	;# 
  1576     0011                     	;# 
  1577     0012                     	;# 
  1578     0013                     	;# 
  1579     0015                     	;# 
  1580     0016                     	;# 
  1581     0016                     	;# 
  1582     0017                     	;# 
  1583     0018                     	;# 
  1584     0019                     	;# 
  1585     001A                     	;# 
  1586     001B                     	;# 
  1587     001C                     	;# 
  1588     001E                     	;# 
  1589     001F                     	;# 
  1590     008C                     	;# 
  1591     008D                     	;# 
  1592     008E                     	;# 
  1593     0090                     	;# 
  1594     0091                     	;# 
  1595     0092                     	;# 
  1596     0093                     	;# 
  1597     0095                     	;# 
  1598     0096                     	;# 
  1599     0097                     	;# 
  1600     0098                     	;# 
  1601     0099                     	;# 
  1602     009A                     	;# 
  1603     009B                     	;# 
  1604     009B                     	;# 
  1605     009C                     	;# 
  1606     009D                     	;# 
  1607     009E                     	;# 
  1608     010C                     	;# 
  1609     010D                     	;# 
  1610     010E                     	;# 
  1611     0110                     	;# 
  1612     0111                     	;# 
  1613     0112                     	;# 
  1614     0113                     	;# 
  1615     0114                     	;# 
  1616     0115                     	;# 
  1617     0116                     	;# 
  1618     0117                     	;# 
  1619     0118                     	;# 
  1620     0119                     	;# 
  1621     011A                     	;# 
  1622     011B                     	;# 
  1623     011D                     	;# 
  1624     018C                     	;# 
  1625     018D                     	;# 
  1626     0191                     	;# 
  1627     0191                     	;# 
  1628     0192                     	;# 
  1629     0193                     	;# 
  1630     0193                     	;# 
  1631     0193                     	;# 
  1632     0194                     	;# 
  1633     0195                     	;# 
  1634     0196                     	;# 
  1635     0199                     	;# 
  1636     019A                     	;# 
  1637     019B                     	;# 
  1638     019B                     	;# 
  1639     019B                     	;# 
  1640     019B                     	;# 
  1641     019C                     	;# 
  1642     019C                     	;# 
  1643     019D                     	;# 
  1644     019E                     	;# 
  1645     019F                     	;# 
  1646     020D                     	;# 
  1647     0210                     	;# 
  1648     0211                     	;# 
  1649     0212                     	;# 
  1650     0213                     	;# 
  1651     0214                     	;# 
  1652     0215                     	;# 
  1653     0215                     	;# 
  1654     0216                     	;# 
  1655     0217                     	;# 
  1656     0291                     	;# 
  1657     0291                     	;# 
  1658     0292                     	;# 
  1659     0293                     	;# 
  1660     0294                     	;# 
  1661     0295                     	;# 
  1662     0295                     	;# 
  1663     0296                     	;# 
  1664     0298                     	;# 
  1665     0298                     	;# 
  1666     0299                     	;# 
  1667     029A                     	;# 
  1668     029B                     	;# 
  1669     029C                     	;# 
  1670     029C                     	;# 
  1671     029D                     	;# 
  1672     029E                     	;# 
  1673     029F                     	;# 
  1674     0311                     	;# 
  1675     0311                     	;# 
  1676     0312                     	;# 
  1677     0313                     	;# 
  1678     0314                     	;# 
  1679     0315                     	;# 
  1680     0315                     	;# 
  1681     0316                     	;# 
  1682     0318                     	;# 
  1683     0318                     	;# 
  1684     0319                     	;# 
  1685     031A                     	;# 
  1686     031C                     	;# 
  1687     031C                     	;# 
  1688     031D                     	;# 
  1689     031E                     	;# 
  1690     0394                     	;# 
  1691     0395                     	;# 
  1692     0396                     	;# 
  1693     0415                     	;# 
  1694     0416                     	;# 
  1695     0417                     	;# 
  1696     041C                     	;# 
  1697     041D                     	;# 
  1698     041E                     	;# 
  1699     0791                     	;# 
  1700     0792                     	;# 
  1701     0793                     	;# 
  1702     0794                     	;# 
  1703     0795                     	;# 
  1704     0798                     	;# 
  1705     0799                     	;# 
  1706     07A0                     	;# 
  1707     07A1                     	;# 
  1708     07A3                     	;# 
  1709     07A4                     	;# 
  1710     07A6                     	;# 
  1711     07A7                     	;# 
  1712     07A9                     	;# 
  1713     07AA                     	;# 
  1714     0FE4                     	;# 
  1715     0FE5                     	;# 
  1716     0FE6                     	;# 
  1717     0FE7                     	;# 
  1718     0FE8                     	;# 
  1719     0FE9                     	;# 
  1720     0FEA                     	;# 
  1721     0FEB                     	;# 
  1722     0FED                     	;# 
  1723     0FEE                     	;# 
  1724     0FEF                     	;# 
  1725                           
  1726                           	psect	idataBANK1
  1727     0384                     __pidataBANK1:
  1728                           
  1729                           ;initializer for _CS
  1730     0384  344C               	retlw	76
  1731     0385  349F               	retlw	159
  1732     0386  34ED               	retlw	237
  1733     0387  343E               	retlw	62
  1734     0388  3466               	retlw	102
  1735     0389  34B5               	retlw	181
  1736     038A  34C7               	retlw	199
  1737     038B  3414               	retlw	20
  1738     038C  3459               	retlw	89
  1739     038D  348A               	retlw	138
  1740     038E  34F8               	retlw	248
  1741     038F  342B               	retlw	43
  1742     0390  3473               	retlw	115
  1743     0391  34A0               	retlw	160
  1744     0392  34D2               	retlw	210
  1745     0393  3401               	retlw	1
  1746     0394  348E               	retlw	142
  1747     0395  345D               	retlw	93
  1748     0396  342F               	retlw	47
  1749     0397  34FC               	retlw	252
  1750     0398  34A4               	retlw	164
  1751     0399  3477               	retlw	119
  1752     039A  3405               	retlw	5
  1753     039B  34D6               	retlw	214
  1754     039C  349B               	retlw	155
  1755     039D  3448               	retlw	72
  1756     039E  343A               	retlw	58
  1757     039F  34E9               	retlw	233
  1758     03A0  34B1               	retlw	177
  1759     03A1  3462               	retlw	98
  1760     03A2  3410               	retlw	16
  1761     03A3  34C3               	retlw	195
  1762     03A4  342D               	retlw	45
  1763     03A5  34FE               	retlw	254
  1764     03A6  348C               	retlw	140
  1765     03A7  345F               	retlw	95
  1766     03A8  3407               	retlw	7
  1767     03A9  34D4               	retlw	212
  1768     03AA  34A6               	retlw	166
  1769     03AB  3475               	retlw	117
  1770     03AC  3438               	retlw	56
  1771     03AD  34EB               	retlw	235
  1772     03AE  3499               	retlw	153
  1773     03AF  344A               	retlw	74
  1774     03B0  3412               	retlw	18
  1775     03B1  34C1               	retlw	193
  1776     03B2  34B3               	retlw	179
  1777     03B3  3460               	retlw	96
  1778     03B4  34EF               	retlw	239
  1779     03B5  343C               	retlw	60
  1780     03B6  344E               	retlw	78
  1781     03B7  349D               	retlw	157
  1782     03B8  34C5               	retlw	197
  1783     03B9  3416               	retlw	22
  1784     03BA  3464               	retlw	100
  1785     03BB  34B7               	retlw	183
  1786     03BC  34FA               	retlw	250
  1787     03BD  3429               	retlw	41
  1788     03BE  345B               	retlw	91
  1789     03BF  3488               	retlw	136
  1790     03C0  34D0               	retlw	208
  1791     03C1  3403               	retlw	3
  1792     03C2  3471               	retlw	113
  1793     03C3  34A2               	retlw	162
  1794     000D                     _PORTBbits	set	13
  1795     001C                     _T2CONbits	set	28
  1796     001C                     _T2CON	set	28
  1797     001A                     _TMR2	set	26
  1798     001B                     _PR2	set	27
  1799     0015                     _TMR0	set	21
  1800     0019                     _T1GCONbits	set	25
  1801     0018                     _T1CONbits	set	24
  1802     0018                     _T1CON	set	24
  1803     0011                     _PIR1bits	set	17
  1804     0016                     _TMR1L	set	22
  1805     0017                     _TMR1H	set	23
  1806     0019                     _T1GCON	set	25
  1807     0013                     _PIR3bits	set	19
  1808     000B                     _INTCONbits	set	11
  1809     0095                     _OPTION_REG	set	149
  1810     0095                     _OPTION_REGbits	set	149
  1811     008E                     _TRISC	set	142
  1812     008D                     _TRISB	set	141
  1813     008C                     _TRISA	set	140
  1814     0090                     _TRISE	set	144
  1815     0093                     _PIE3bits	set	147
  1816     0097                     _WDTCON	set	151
  1817     0098                     _OSCTUNE	set	152
  1818     0099                     _OSCCON	set	153
  1819     04D6                     _PLLR	set	1238
  1820     010E                     _LATCbits	set	270
  1821     010C                     _LATAbits	set	268
  1822     010D                     _LATBbits	set	269
  1823     011D                     _APFCON	set	285
  1824     010E                     _LATC	set	270
  1825     010D                     _LATB	set	269
  1826     010C                     _LATA	set	268
  1827     0110                     _LATE	set	272
  1828     0116                     _BORCON	set	278
  1829     018C                     _ANSELA	set	396
  1830     018D                     _ANSELB	set	397
  1831     020D                     _WPUB	set	525
  1832     0210                     _WPUE	set	528
  1833     029E                     _CCPTMRS0bits	set	670
  1834     0291                     _CCPR1L	set	657
  1835     0292                     _CCPR1H	set	658
  1836     0296                     _PSTR1CON	set	662
  1837     0294                     _PWM1CON	set	660
  1838     0295                     _ECCP1AS	set	661
  1839     0293                     _CCP1CON	set	659
  1840     0311                     _CCPR3L	set	785
  1841     0312                     _CCPR3H	set	786
  1842     0313                     _CCP3CON	set	787
  1843                           
  1844                           	psect	cinit
  1845     0028                     start_initialization:	
  1846                           ; #config settings
  1847                           
  1848     0028                     __initialization:
  1849                           
  1850                           ; Initialize objects allocated to BANK1
  1851     0028  3084               	movlw	low __pidataBANK1
  1852     0029  0084               	movwf	4
  1853     002A  3083               	movlw	(high __pidataBANK1)| (0+128)
  1854     002B  0085               	movwf	5
  1855     002C  30A0               	movlw	low __pdataBANK1
  1856     002D  0086               	movwf	6
  1857     002E  3000               	movlw	high __pdataBANK1
  1858     002F  0087               	movwf	7
  1859     0030  3040               	movlw	64
  1860     0031  3184  24D8  3180   	fcall	init_ram
  1861                           
  1862                           ; Clear objects allocated to COMMON
  1863     0034  01F0               	clrf	__pbssCOMMON& (0+127)
  1864     0035  01F1               	clrf	(__pbssCOMMON+1)& (0+127)
  1865     0036  01F2               	clrf	(__pbssCOMMON+2)& (0+127)
  1866     0037  01F3               	clrf	(__pbssCOMMON+3)& (0+127)
  1867     0038  01F4               	clrf	(__pbssCOMMON+4)& (0+127)
  1868     0039  01F5               	clrf	(__pbssCOMMON+5)& (0+127)
  1869                           
  1870                           ; Clear objects allocated to BANK0
  1871     003A  3020               	movlw	low __pbssBANK0
  1872     003B  0084               	movwf	4
  1873     003C  3000               	movlw	high __pbssBANK0
  1874     003D  0085               	movwf	5
  1875     003E  3025               	movlw	37
  1876     003F  3184  24DE  3180   	fcall	clear_ram0
  1877     0042                     end_of_initialization:	
  1878                           ;End of C runtime variable initialization code
  1879                           
  1880     0042                     __end_of__initialization:
  1881     0042  107E               	bcf	int$flags,0	;clear compiler interrupt flag (level 1)
  1882     0043  0020               	movlb	0
  1883     0044  3183  2B02         	ljmp	_main	;jump to C main() function
  1884                           
  1885                           	psect	bssCOMMON
  1886     0070                     __pbssCOMMON:
  1887     0070                     ECCP3_CallBack@falling_edge_time:
  1888     0070                     	ds	2
  1889     0072                     ECCP3_CallBack@HI_us:
  1890     0072                     	ds	1
  1891     0073                     _D2:
  1892     0073                     	ds	1
  1893     0074                     _rx_data:
  1894     0074                     	ds	1
  1895     0075                     _timer0ReloadVal:
  1896     0075                     	ds	1
  1897                           
  1898                           	psect	bssBANK0
  1899     0020                     __pbssBANK0:
  1900     0020                     _data_buf:
  1901     0020                     	ds	11
  1902     002B                     ECCP3_CallBack@rising_edge_time:
  1903     002B                     	ds	2
  1904     002D                     ECCP3_CallBack@pluse_width_HI:
  1905     002D                     	ds	2
  1906     002F                     ECCP3_CallBack@pluse_width_LO:
  1907     002F                     	ds	2
  1908     0031                     TMR0_ISR@CountCallBack:
  1909     0031                     	ds	2
  1910     0033                     _TMR0_InterruptHandler:
  1911     0033                     	ds	2
  1912     0035                     _timer1ReloadVal:
  1913     0035                     	ds	2
  1914     0037                     ECCP3_CallBack@data_cnt:
  1915     0037                     	ds	1
  1916     0038                     ECCP3_CallBack@fHead:
  1917     0038                     	ds	1
  1918     0039                     ECCP3_CallBack@rise_edge_flag:
  1919     0039                     	ds	1
  1920     003A                     ECCP3_CallBack@diff_us:
  1921     003A                     	ds	1
  1922     003B                     ECCP3_CallBack@LO_us:
  1923     003B                     	ds	1
  1924     003C                     _fLampSide:
  1925     003C                     	ds	1
  1926     003D                     _fException2:
  1927     003D                     	ds	1
  1928     003E                     _fException:
  1929     003E                     	ds	1
  1930     003F                     _T10MS_CNT:
  1931     003F                     	ds	1
  1932     0040                     _csFlag:
  1933     0040                     	ds	1
  1934     0041                     _D3:
  1935     0041                     	ds	1
  1936     0042                     _step:
  1937     0042                     	ds	1
  1938     0043                     _fFrame_OK:
  1939     0043                     	ds	1
  1940     0044                     _data_1byte_OK:
  1941     0044                     	ds	1
  1942                           
  1943                           	psect	dataBANK1
  1944     00A0                     __pdataBANK1:
  1945     00A0                     _CS:
  1946     00A0                     	ds	64
  1947                           
  1948                           	psect	inittext
  1949     04D8                     init_ram:
  1950     04D8  00FE               	movwf	btemp
  1951     04D9                     initloop:
  1952     04D9  0012               	moviw fsr0++
  1953     04DA  001E               	movwi fsr1++
  1954     04DB  0BFE               	decfsz	btemp,f
  1955     04DC  2CD9               	goto	initloop
  1956     04DD  3400               	retlw	0
  1957                           
  1958                           	psect	clrtext
  1959     04DE                     clear_ram0:	
  1960                           ;	Called with FSR0 containing the base address, and
  1961                           ;	WREG with the size to clear
  1962                           
  1963     04DE  0064               	clrwdt	;clear the watchdog before getting into this loop
  1964     04DF                     clrloop0:
  1965     04DF  0180               	clrf	0	;clear RAM location pointed to by FSR
  1966     04E0  3101               	addfsr 0,1
  1967     04E1  0B89               	decfsz	9,f	;Have we reached the end of clearing yet?
  1968     04E2  2CDF               	goto	clrloop0	;have we reached the end yet?
  1969     04E3  3400               	retlw	0	;all done for this memory range, return
  1970                           
  1971                           	psect	cstackCOMMON
  1972     0076                     __pcstackCOMMON:
  1973     0076                     ?_PIN_MANAGER_Initialize:
  1974     0076                     ?_OSCILLATOR_Initialize:	
  1975                           ; 1 bytes @ 0x0
  1976                           
  1977     0076                     ?_WDT_Initialize:	
  1978                           ; 1 bytes @ 0x0
  1979                           
  1980     0076                     ?_EPWM1_Initialize:	
  1981                           ; 1 bytes @ 0x0
  1982                           
  1983     0076                     ?_ECCP3_Initialize:	
  1984                           ; 1 bytes @ 0x0
  1985                           
  1986     0076                     ?_TMR2_Initialize:	
  1987                           ; 1 bytes @ 0x0
  1988                           
  1989     0076                     ?_TMR1_Initialize:	
  1990                           ; 1 bytes @ 0x0
  1991                           
  1992     0076                     ?_TMR0_Initialize:	
  1993                           ; 1 bytes @ 0x0
  1994                           
  1995     0076                     ?_TMR0_ISR:	
  1996                           ; 1 bytes @ 0x0
  1997                           
  1998     0076                     ?_ECCP3_CaptureISR:	
  1999                           ; 1 bytes @ 0x0
  2000                           
  2001     0076                     ?_TMR0_DefaultInterruptHandler:	
  2002                           ; 1 bytes @ 0x0
  2003                           
  2004     0076                     ??_TMR0_DefaultInterruptHandler:	
  2005                           ; 1 bytes @ 0x0
  2006                           
  2007     0076                     ?_TMR0_CallBack:	
  2008                           ; 1 bytes @ 0x0
  2009                           
  2010     0076                     ?_ECCP3_CallBack:	
  2011                           ; 1 bytes @ 0x0
  2012                           
  2013     0076                     ?_POS_ON:	
  2014                           ; 1 bytes @ 0x0
  2015                           
  2016     0076                     ?_SYSTEM_Initialize:	
  2017                           ; 1 bytes @ 0x0
  2018                           
  2019     0076                     ?_INTERRUPT_InterruptManager:	
  2020                           ; 1 bytes @ 0x0
  2021                           
  2022     0076                     ?_LoBeam_ON:	
  2023                           ; 1 bytes @ 0x0
  2024                           
  2025     0076                     ?_Exception_handling:	
  2026                           ; 1 bytes @ 0x0
  2027                           
  2028     0076                     ?_DRL_ON:	
  2029                           ; 1 bytes @ 0x0
  2030                           
  2031     0076                     ?_LED_output:	
  2032                           ; 1 bytes @ 0x0
  2033                           
  2034     0076                     ?_check_input:	
  2035                           ; 1 bytes @ 0x0
  2036                           
  2037     0076                     ?_getFrameData:	
  2038                           ; 1 bytes @ 0x0
  2039                           
  2040     0076                     ?_TMR0_EvenHandler:	
  2041                           ; 1 bytes @ 0x0
  2042                           
  2043     0076                     ??_TMR0_EvenHandler:	
  2044                           ; 1 bytes @ 0x0
  2045                           
  2046     0076                     ?_main:	
  2047                           ; 1 bytes @ 0x0
  2048                           
  2049     0076                     ECCP3_CallBack@capturedValue:	
  2050                           ; 2 bytes @ 0x0
  2051                           
  2052                           
  2053                           ; 2 bytes @ 0x0
  2054     0076                     	ds	1
  2055     0077                     ??_TMR0_ISR:
  2056     0077                     ??_TMR0_CallBack:	
  2057                           ; 1 bytes @ 0x1
  2058                           
  2059                           
  2060                           ; 1 bytes @ 0x1
  2061     0077                     	ds	1
  2062     0078                     ??_ECCP3_CallBack:
  2063                           
  2064                           ; 1 bytes @ 0x2
  2065     0078                     	ds	2
  2066     007A                     ??_ECCP3_CaptureISR:
  2067     007A                     ECCP3_CaptureISR@module:	
  2068                           ; 1 bytes @ 0x4
  2069                           
  2070                           
  2071                           ; 2 bytes @ 0x4
  2072     007A                     	ds	2
  2073     007C                     ??_INTERRUPT_InterruptManager:
  2074                           
  2075                           	psect	cstackBANK0
  2076     0045                     __pcstackBANK0:	
  2077                           ; 1 bytes @ 0x6
  2078                           
  2079     0045                     ??_PIN_MANAGER_Initialize:
  2080     0045                     ??_OSCILLATOR_Initialize:	
  2081                           ; 1 bytes @ 0x0
  2082                           
  2083     0045                     ??_WDT_Initialize:	
  2084                           ; 1 bytes @ 0x0
  2085                           
  2086     0045                     ??_EPWM1_Initialize:	
  2087                           ; 1 bytes @ 0x0
  2088                           
  2089     0045                     ??_ECCP3_Initialize:	
  2090                           ; 1 bytes @ 0x0
  2091                           
  2092     0045                     ??_TMR2_Initialize:	
  2093                           ; 1 bytes @ 0x0
  2094                           
  2095     0045                     ??_TMR1_Initialize:	
  2096                           ; 1 bytes @ 0x0
  2097                           
  2098     0045                     ?_TMR0_SetInterruptHandler:	
  2099                           ; 1 bytes @ 0x0
  2100                           
  2101     0045                     ??_POS_ON:	
  2102                           ; 1 bytes @ 0x0
  2103                           
  2104     0045                     ??_LoBeam_ON:	
  2105                           ; 1 bytes @ 0x0
  2106                           
  2107     0045                     ??_Exception_handling:	
  2108                           ; 1 bytes @ 0x0
  2109                           
  2110     0045                     ??_DRL_ON:	
  2111                           ; 1 bytes @ 0x0
  2112                           
  2113     0045                     ??_LED_output:	
  2114                           ; 1 bytes @ 0x0
  2115                           
  2116     0045                     ??_check_input:	
  2117                           ; 1 bytes @ 0x0
  2118                           
  2119     0045                     ??_getFrameData:	
  2120                           ; 1 bytes @ 0x0
  2121                           
  2122     0045                     TMR0_SetInterruptHandler@InterruptHandler:	
  2123                           ; 1 bytes @ 0x0
  2124                           
  2125                           
  2126                           ; 2 bytes @ 0x0
  2127     0045                     	ds	1
  2128     0046                     LED_output@crc8:
  2129                           
  2130                           ; 1 bytes @ 0x1
  2131     0046                     	ds	1
  2132     0047                     ??_TMR0_Initialize:
  2133     0047                     ??_TMR0_SetInterruptHandler:	
  2134                           ; 1 bytes @ 0x2
  2135                           
  2136     0047                     ??_SYSTEM_Initialize:	
  2137                           ; 1 bytes @ 0x2
  2138                           
  2139     0047                     LED_output@i:	
  2140                           ; 1 bytes @ 0x2
  2141                           
  2142                           
  2143                           ; 1 bytes @ 0x2
  2144     0047                     	ds	1
  2145     0048                     ??_main:
  2146                           
  2147                           	psect	maintext
  2148     0302                     __pmaintext:	
  2149                           ; 1 bytes @ 0x3
  2150 ;;
  2151 ;;Main: autosize = 0, tempsize = 0, incstack = 0, save=0
  2152 ;;
  2153 ;; *************** function _main *****************
  2154 ;; Defined at:
  2155 ;;		line 753 in file "main.c"
  2156 ;; Parameters:    Size  Location     Type
  2157 ;;		None
  2158 ;; Auto vars:     Size  Location     Type
  2159 ;;		None
  2160 ;; Return value:  Size  Location     Type
  2161 ;;                  2  531[None  ] int 
  2162 ;; Registers used:
  2163 ;;		wreg, fsr0l, fsr0h, fsr1l, fsr1h, status,2, status,0, pclath, cstack
  2164 ;; Tracked objects:
  2165 ;;		On entry : B1F/0
  2166 ;;		On exit  : 0/0
  2167 ;;		Unchanged: 0/0
  2168 ;; Data sizes:     COMMON   BANK0   BANK1   BANK2   BANK3   BANK4   BANK5   BANK6
  2169 ;;      Params:         0       0       0       0       0       0       0       0
  2170 ;;      Locals:         0       0       0       0       0       0       0       0
  2171 ;;      Temps:          0       0       0       0       0       0       0       0
  2172 ;;      Totals:         0       0       0       0       0       0       0       0
  2173 ;;Total ram usage:        0 bytes
  2174 ;; Hardware stack levels required when called: 7
  2175 ;; This function calls:
  2176 ;;		_Exception_handling
  2177 ;;		_LED_output
  2178 ;;		_LoBeam_ON
  2179 ;;		_POS_ON
  2180 ;;		_SYSTEM_Initialize
  2181 ;;		_TMR0_SetInterruptHandler
  2182 ;;		_check_input
  2183 ;;		_getFrameData
  2184 ;; This function is called by:
  2185 ;;		Startup code after reset
  2186 ;; This function uses a non-reentrant model
  2187 ;;
  2188                           
  2189     0302                     _main:	
  2190                           ;psect for function _main
  2191                           
  2192     0302                     l2571:	
  2193                           ;incstack = 0
  2194                           ; Regs used in _main: [wreg-fsr1h+status,2+status,0+pclath+cstack]
  2195                           
  2196                           
  2197                           ;main.c: 755:   SYSTEM_Initialize();
  2198     0302  3184  2430  3183   	fcall	_SYSTEM_Initialize
  2199                           
  2200                           ;main.c: 756:   TMR0_SetInterruptHandler(TMR0_EvenHandler);
  2201     0305  3075               	movlw	low _TMR0_EvenHandler
  2202     0306  0020               	movlb	0	; select bank0
  2203     0307  00C5               	movwf	TMR0_SetInterruptHandler@InterruptHandler
  2204     0308  3004               	movlw	high _TMR0_EvenHandler
  2205     0309  00C6               	movwf	TMR0_SetInterruptHandler@InterruptHandler+1
  2206     030A  3184  24E4  3183   	fcall	_TMR0_SetInterruptHandler
  2207     030D                     l2573:
  2208     030D  0022               	movlb	2	; select bank2
  2209     030E  100D               	bcf	13,0	;volatile
  2210     030F                     l2575:
  2211                           
  2212                           ;main.c: 758:   CCPR1L = 0;
  2213     030F  0025               	movlb	5	; select bank5
  2214     0310  0191               	clrf	17	;volatile
  2215     0311                     l2577:
  2216                           
  2217                           ;main.c: 764:   (INTCONbits.GIE = 1);
  2218     0311  178B               	bsf	11,7	;volatile
  2219     0312                     l2579:
  2220                           
  2221                           ;main.c: 767:   (INTCONbits.PEIE = 1);
  2222     0312  170B               	bsf	11,6	;volatile
  2223     0313                     l2581:
  2224                           
  2225                           ;main.c: 776:   if(PORTBbits.RB3==0)
  2226     0313  0020               	movlb	0	; select bank0
  2227     0314  198D               	btfsc	13,3	;volatile
  2228     0315  2B17               	goto	u3211
  2229     0316  2B18               	goto	u3210
  2230     0317                     u3211:
  2231     0317  2B1A               	goto	l534
  2232     0318                     u3210:
  2233     0318                     l2583:
  2234                           
  2235                           ;main.c: 777:     fLampSide=0;
  2236     0318  01BC               	clrf	_fLampSide
  2237     0319  2B1C               	goto	l2585
  2238     031A                     l534:	
  2239                           ;main.c: 778:   else
  2240                           
  2241                           
  2242                           ;main.c: 779:     fLampSide= 1;
  2243     031A  01BC               	clrf	_fLampSide
  2244     031B  0ABC               	incf	_fLampSide,f
  2245     031C                     l2585:
  2246                           
  2247                           ;main.c: 782:     getFrameData();
  2248     031C  3182  2291  3183   	fcall	_getFrameData
  2249     031F                     l2587:
  2250                           
  2251                           ;main.c: 783:     check_input();
  2252     031F  3183  23C4  3183   	fcall	_check_input
  2253     0322                     l2589:
  2254                           
  2255                           ;main.c: 785:     Exception_handling();
  2256     0322  3184  2413  3183   	fcall	_Exception_handling
  2257     0325                     l2591:
  2258                           
  2259                           ;main.c: 786:     if (fException2 == 0) {
  2260     0325  0020               	movlb	0	; select bank0
  2261     0326  083D               	movf	_fException2,w
  2262     0327  1D03               	btfss	3,2
  2263     0328  2B2A               	goto	u3221
  2264     0329  2B2B               	goto	u3220
  2265     032A                     u3221:
  2266     032A  2B36               	goto	l2599
  2267     032B                     u3220:
  2268     032B                     l2593:
  2269                           
  2270                           ;main.c: 787:       if (fException == 1) {
  2271     032B  033E               	decf	_fException,w
  2272     032C  1D03               	btfss	3,2
  2273     032D  2B2F               	goto	u3231
  2274     032E  2B30               	goto	u3230
  2275     032F                     u3231:
  2276     032F  2B32               	goto	l2597
  2277     0330                     u3230:
  2278     0330                     l2595:
  2279                           
  2280                           ;main.c: 789:         fException = 0;
  2281     0330  01BE               	clrf	_fException
  2282                           
  2283                           ;main.c: 790:       } else
  2284     0331  2B1C               	goto	l2585
  2285     0332                     l2597:
  2286                           
  2287                           ;main.c: 791:         LED_output();
  2288     0332  3180  2046  3183   	fcall	_LED_output
  2289     0335  2B1C               	goto	l2585
  2290     0336                     l2599:
  2291                           
  2292                           ;main.c: 794:       fException2 = 0;
  2293     0336  01BD               	clrf	_fException2
  2294     0337                     l2601:
  2295     0337  0022               	movlb	2	; select bank2
  2296     0338  148C               	bsf	12,1	;volatile
  2297     0339                     l2603:
  2298     0339  100C               	bcf	12,0	;volatile
  2299     033A                     l2605:
  2300                           
  2301                           ;main.c: 797:       LoBeam_ON();
  2302     033A  3184  24EA  3183   	fcall	_LoBeam_ON
  2303     033D                     l2607:
  2304                           
  2305                           ;main.c: 798:       POS_ON();
  2306     033D  3184  24F0  3183   	fcall	_POS_ON
  2307     0340  2B1C               	goto	l2585
  2308     0341  3180  2826         	ljmp	start
  2309     0343                     __end_of_main:
  2310                           
  2311                           	psect	text1
  2312     0291                     __ptext1:	
  2313 ;; *************** function _getFrameData *****************
  2314 ;; Defined at:
  2315 ;;		line 602 in file "main.c"
  2316 ;; Parameters:    Size  Location     Type
  2317 ;;		None
  2318 ;; Auto vars:     Size  Location     Type
  2319 ;;		None
  2320 ;; Return value:  Size  Location     Type
  2321 ;;                  1    wreg      void 
  2322 ;; Registers used:
  2323 ;;		wreg, fsr0l, fsr0h, status,2, status,0
  2324 ;; Tracked objects:
  2325 ;;		On entry : 0/0
  2326 ;;		On exit  : 0/0
  2327 ;;		Unchanged: 0/0
  2328 ;; Data sizes:     COMMON   BANK0   BANK1   BANK2   BANK3   BANK4   BANK5   BANK6
  2329 ;;      Params:         0       0       0       0       0       0       0       0
  2330 ;;      Locals:         0       0       0       0       0       0       0       0
  2331 ;;      Temps:          0       0       0       0       0       0       0       0
  2332 ;;      Totals:         0       0       0       0       0       0       0       0
  2333 ;;Total ram usage:        0 bytes
  2334 ;; Hardware stack levels used: 1
  2335 ;; Hardware stack levels required when called: 4
  2336 ;; This function calls:
  2337 ;;		Nothing
  2338 ;; This function is called by:
  2339 ;;		_main
  2340 ;; This function uses a non-reentrant model
  2341 ;;
  2342                           
  2343     0291                     _getFrameData:	
  2344                           ;psect for function _getFrameData
  2345                           
  2346     0291                     l2525:	
  2347                           ;incstack = 0
  2348                           ; Regs used in _getFrameData: [wreg-fsr0h+status,2+status,0]
  2349                           
  2350                           
  2351                           ;main.c: 603:   if (data_1byte_OK == 1) {
  2352     0291  0020               	movlb	0	; select bank0
  2353     0292  0344               	decf	_data_1byte_OK,w	;volatile
  2354     0293  1D03               	btfss	3,2
  2355     0294  2A96               	goto	u3181
  2356     0295  2A97               	goto	u3180
  2357     0296                     u3181:
  2358     0296  2B01               	goto	l476
  2359     0297                     u3180:
  2360     0297                     l2527:
  2361                           
  2362                           ;main.c: 604:     data_1byte_OK = 0;
  2363     0297  01C4               	clrf	_data_1byte_OK	;volatile
  2364                           
  2365                           ;main.c: 607:     switch (step) {
  2366     0298  2ADE               	goto	l2569
  2367     0299                     l2529:
  2368                           
  2369                           ;main.c: 609:       if (rx_data == 0xC8) {
  2370     0299  30C8               	movlw	200
  2371     029A  0674               	xorwf	_rx_data,w
  2372     029B  1D03               	btfss	3,2
  2373     029C  2A9E               	goto	u3191
  2374     029D  2A9F               	goto	u3190
  2375     029E                     u3191:
  2376     029E  2AA4               	goto	l2535
  2377     029F                     u3190:
  2378     029F                     l2531:
  2379                           
  2380                           ;main.c: 610:         step = 1;
  2381     029F  01C2               	clrf	_step
  2382     02A0  0AC2               	incf	_step,f
  2383     02A1                     l2533:
  2384                           
  2385                           ;main.c: 611:         data_buf[0] = rx_data;
  2386     02A1  0874               	movf	_rx_data,w
  2387     02A2  00A0               	movwf	_data_buf
  2388                           
  2389                           ;main.c: 612:       } else {
  2390     02A3  2B01               	goto	l476
  2391     02A4                     l2535:
  2392                           
  2393                           ;main.c: 613:         step = 0;
  2394     02A4  01C2               	clrf	_step
  2395     02A5  2B01               	goto	l476
  2396     02A6                     l2537:
  2397                           
  2398                           ;main.c: 617:       if (rx_data == 0x8B) {
  2399     02A6  308B               	movlw	139
  2400     02A7  0674               	xorwf	_rx_data,w
  2401     02A8  1D03               	btfss	3,2
  2402     02A9  2AAB               	goto	u3201
  2403     02AA  2AAC               	goto	u3200
  2404     02AB                     u3201:
  2405     02AB  2AA4               	goto	l2535
  2406     02AC                     u3200:
  2407     02AC                     l2539:
  2408                           
  2409                           ;main.c: 618:         data_buf[1] = rx_data;
  2410     02AC  0874               	movf	_rx_data,w
  2411     02AD  00A1               	movwf	_data_buf+1
  2412                           
  2413                           ;main.c: 619:         step = 2;
  2414     02AE  3002               	movlw	2
  2415     02AF  00C2               	movwf	_step
  2416                           
  2417                           ;main.c: 620:       } else {
  2418     02B0  2B01               	goto	l476
  2419     02B1                     l2543:
  2420                           
  2421                           ;main.c: 625:       data_buf[2] = rx_data;
  2422     02B1  0874               	movf	_rx_data,w
  2423     02B2  00A2               	movwf	_data_buf+2
  2424                           
  2425                           ;main.c: 626:       step = 3;
  2426     02B3  3003               	movlw	3
  2427     02B4  00C2               	movwf	_step
  2428                           
  2429                           ;main.c: 627:       break;
  2430     02B5  2B01               	goto	l476
  2431     02B6                     l2545:
  2432                           
  2433                           ;main.c: 629:       data_buf[3] = rx_data;
  2434     02B6  0874               	movf	_rx_data,w
  2435     02B7  00A3               	movwf	_data_buf+3
  2436                           
  2437                           ;main.c: 630:       step = 4;
  2438     02B8  3004               	movlw	4
  2439     02B9  00C2               	movwf	_step
  2440                           
  2441                           ;main.c: 631:       break;
  2442     02BA  2B01               	goto	l476
  2443     02BB                     l2547:
  2444                           
  2445                           ;main.c: 633:       data_buf[4] = rx_data;
  2446     02BB  0874               	movf	_rx_data,w
  2447     02BC  00A4               	movwf	_data_buf+4
  2448                           
  2449                           ;main.c: 634:       step = 5;
  2450     02BD  3005               	movlw	5
  2451     02BE  00C2               	movwf	_step
  2452                           
  2453                           ;main.c: 635:       break;
  2454     02BF  2B01               	goto	l476
  2455     02C0                     l2549:
  2456                           
  2457                           ;main.c: 637:       data_buf[5] = rx_data;
  2458     02C0  0874               	movf	_rx_data,w
  2459     02C1  00A5               	movwf	_data_buf+5
  2460                           
  2461                           ;main.c: 638:       step = 6;
  2462     02C2  3006               	movlw	6
  2463     02C3  00C2               	movwf	_step
  2464                           
  2465                           ;main.c: 639:       break;
  2466     02C4  2B01               	goto	l476
  2467     02C5                     l2551:
  2468                           
  2469                           ;main.c: 641:       data_buf[6] = rx_data;
  2470     02C5  0874               	movf	_rx_data,w
  2471     02C6  00A6               	movwf	_data_buf+6
  2472                           
  2473                           ;main.c: 642:       step = 7;
  2474     02C7  3007               	movlw	7
  2475     02C8  00C2               	movwf	_step
  2476                           
  2477                           ;main.c: 643:       break;
  2478     02C9  2B01               	goto	l476
  2479     02CA                     l2553:
  2480                           
  2481                           ;main.c: 645:       data_buf[7] = rx_data;
  2482     02CA  0874               	movf	_rx_data,w
  2483     02CB  00A7               	movwf	_data_buf+7
  2484                           
  2485                           ;main.c: 646:       step = 8;
  2486     02CC  3008               	movlw	8
  2487     02CD  00C2               	movwf	_step
  2488                           
  2489                           ;main.c: 647:       break;
  2490     02CE  2B01               	goto	l476
  2491     02CF                     l2555:
  2492                           
  2493                           ;main.c: 649:       data_buf[8] = rx_data;
  2494     02CF  0874               	movf	_rx_data,w
  2495     02D0  00A8               	movwf	_data_buf+8
  2496                           
  2497                           ;main.c: 650:       step = 9;
  2498     02D1  3009               	movlw	9
  2499     02D2  00C2               	movwf	_step
  2500                           
  2501                           ;main.c: 651:       break;
  2502     02D3  2B01               	goto	l476
  2503     02D4                     l2557:
  2504                           
  2505                           ;main.c: 653:       data_buf[9] = rx_data;
  2506     02D4  0874               	movf	_rx_data,w
  2507     02D5  00A9               	movwf	_data_buf+9
  2508                           
  2509                           ;main.c: 654:       step = 10;
  2510     02D6  300A               	movlw	10
  2511     02D7  00C2               	movwf	_step
  2512                           
  2513                           ;main.c: 655:       break;
  2514     02D8  2B01               	goto	l476
  2515     02D9                     l2559:
  2516                           
  2517                           ;main.c: 657:       data_buf[10] = rx_data;
  2518     02D9  0874               	movf	_rx_data,w
  2519     02DA  00AA               	movwf	_data_buf+10
  2520     02DB                     l2561:
  2521                           
  2522                           ;main.c: 658:       fFrame_OK = 1;
  2523     02DB  01C3               	clrf	_fFrame_OK
  2524     02DC  0AC3               	incf	_fFrame_OK,f
  2525     02DD  2AA4               	goto	l2535
  2526     02DE                     l2569:
  2527     02DE  0842               	movf	_step,w
  2528                           
  2529                           ; Switch size 1, requested type "simple"
  2530                           ; Number of cases is 11, Range of values is 0 to 10
  2531                           ; switch strategies available:
  2532                           ; Name         Instructions Cycles
  2533                           ; direct_byte           28     6 (fixed)
  2534                           ; simple_byte           34    18 (average)
  2535                           ; jumptable            260     6 (fixed)
  2536                           ;	Chosen strategy is simple_byte
  2537     02DF  3A00               	xorlw	0	; case 0
  2538     02E0  1903               	skipnz
  2539     02E1  2A99               	goto	l2529
  2540     02E2  3A01               	xorlw	1	; case 1
  2541     02E3  1903               	skipnz
  2542     02E4  2AA6               	goto	l2537
  2543     02E5  3A03               	xorlw	3	; case 2
  2544     02E6  1903               	skipnz
  2545     02E7  2AB1               	goto	l2543
  2546     02E8  3A01               	xorlw	1	; case 3
  2547     02E9  1903               	skipnz
  2548     02EA  2AB6               	goto	l2545
  2549     02EB  3A07               	xorlw	7	; case 4
  2550     02EC  1903               	skipnz
  2551     02ED  2ABB               	goto	l2547
  2552     02EE  3A01               	xorlw	1	; case 5
  2553     02EF  1903               	skipnz
  2554     02F0  2AC0               	goto	l2549
  2555     02F1  3A03               	xorlw	3	; case 6
  2556     02F2  1903               	skipnz
  2557     02F3  2AC5               	goto	l2551
  2558     02F4  3A01               	xorlw	1	; case 7
  2559     02F5  1903               	skipnz
  2560     02F6  2ACA               	goto	l2553
  2561     02F7  3A0F               	xorlw	15	; case 8
  2562     02F8  1903               	skipnz
  2563     02F9  2ACF               	goto	l2555
  2564     02FA  3A01               	xorlw	1	; case 9
  2565     02FB  1903               	skipnz
  2566     02FC  2AD4               	goto	l2557
  2567     02FD  3A03               	xorlw	3	; case 10
  2568     02FE  1903               	skipnz
  2569     02FF  2AD9               	goto	l2559
  2570     0300  2AA4               	goto	l2535
  2571     0301                     l476:
  2572     0301  0008               	return
  2573     0302                     __end_of_getFrameData:
  2574                           
  2575                           	psect	text2
  2576     03C4                     __ptext2:	
  2577 ;; *************** function _check_input *****************
  2578 ;; Defined at:
  2579 ;;		line 560 in file "main.c"
  2580 ;; Parameters:    Size  Location     Type
  2581 ;;		None
  2582 ;; Auto vars:     Size  Location     Type
  2583 ;;		None
  2584 ;; Return value:  Size  Location     Type
  2585 ;;                  1    wreg      void 
  2586 ;; Registers used:
  2587 ;;		wreg, status,2
  2588 ;; Tracked objects:
  2589 ;;		On entry : 0/0
  2590 ;;		On exit  : 0/0
  2591 ;;		Unchanged: 0/0
  2592 ;; Data sizes:     COMMON   BANK0   BANK1   BANK2   BANK3   BANK4   BANK5   BANK6
  2593 ;;      Params:         0       0       0       0       0       0       0       0
  2594 ;;      Locals:         0       0       0       0       0       0       0       0
  2595 ;;      Temps:          0       0       0       0       0       0       0       0
  2596 ;;      Totals:         0       0       0       0       0       0       0       0
  2597 ;;Total ram usage:        0 bytes
  2598 ;; Hardware stack levels used: 1
  2599 ;; Hardware stack levels required when called: 4
  2600 ;; This function calls:
  2601 ;;		Nothing
  2602 ;; This function is called by:
  2603 ;;		_main
  2604 ;; This function uses a non-reentrant model
  2605 ;;
  2606                           
  2607     03C4                     _check_input:	
  2608                           ;psect for function _check_input
  2609                           
  2610     03C4                     l2507:	
  2611                           ;incstack = 0
  2612                           ; Regs used in _check_input: [wreg+status,2]
  2613                           
  2614                           
  2615                           ;main.c: 561:   D2.Byte = data_buf[2];
  2616     03C4  0020               	movlb	0	; select bank0
  2617     03C5  0822               	movf	_data_buf+2,w
  2618     03C6  00F3               	movwf	_D2
  2619                           
  2620                           ;main.c: 562:   D3.Byte = data_buf[3];
  2621     03C7  0823               	movf	_data_buf+3,w
  2622     03C8  00C1               	movwf	_D3
  2623     03C9                     l2509:
  2624                           
  2625                           ;main.c: 563:   csFlag.Byte = 0;
  2626     03C9  01C0               	clrf	_csFlag
  2627     03CA                     l2511:
  2628                           
  2629                           ;main.c: 566:   if (D2.POS == 1)
  2630     03CA  1D73               	btfss	_D2,2
  2631     03CB  2BCD               	goto	u3121
  2632     03CC  2BCE               	goto	u3120
  2633     03CD                     u3121:
  2634     03CD  2BD0               	goto	l442
  2635     03CE                     u3120:
  2636     03CE                     l2513:
  2637                           
  2638                           ;main.c: 567:     csFlag.POS = 1;
  2639     03CE  16C0               	bsf	_csFlag,5
  2640     03CF  2BD1               	goto	l443
  2641     03D0                     l442:	
  2642                           ;main.c: 568:   else
  2643                           
  2644                           
  2645                           ;main.c: 569:     csFlag.POS = 0;
  2646     03D0  12C0               	bcf	_csFlag,5
  2647     03D1                     l443:
  2648                           
  2649                           ;main.c: 572:   if (D2.DRL == 1)
  2650     03D1  1DF3               	btfss	_D2,3
  2651     03D2  2BD4               	goto	u3131
  2652     03D3  2BD5               	goto	u3130
  2653     03D4                     u3131:
  2654     03D4  2BD7               	goto	l444
  2655     03D5                     u3130:
  2656     03D5                     l2515:
  2657                           
  2658                           ;main.c: 573:     csFlag.DRL = 1;
  2659     03D5  1640               	bsf	_csFlag,4
  2660     03D6  2BD8               	goto	l445
  2661     03D7                     l444:	
  2662                           ;main.c: 574:   else
  2663                           
  2664                           
  2665                           ;main.c: 575:     csFlag.DRL = 0;
  2666     03D7  1240               	bcf	_csFlag,4
  2667     03D8                     l445:
  2668                           
  2669                           ;main.c: 578:   if (D2.LoBeam == 1)
  2670     03D8  1E73               	btfss	_D2,4
  2671     03D9  2BDB               	goto	u3141
  2672     03DA  2BDC               	goto	u3140
  2673     03DB                     u3141:
  2674     03DB  2BDE               	goto	l446
  2675     03DC                     u3140:
  2676     03DC                     l2517:
  2677                           
  2678                           ;main.c: 579:     csFlag.LoBeam = 1;
  2679     03DC  15C0               	bsf	_csFlag,3
  2680     03DD  2BDF               	goto	l447
  2681     03DE                     l446:	
  2682                           ;main.c: 580:   else
  2683                           
  2684                           
  2685                           ;main.c: 581:     csFlag.LoBeam = 0;
  2686     03DE  11C0               	bcf	_csFlag,3
  2687     03DF                     l447:
  2688                           
  2689                           ;main.c: 584:   if (D2.HiBeam == 1)
  2690     03DF  1EF3               	btfss	_D2,5
  2691     03E0  2BE2               	goto	u3151
  2692     03E1  2BE3               	goto	u3150
  2693     03E2                     u3151:
  2694     03E2  2BE5               	goto	l448
  2695     03E3                     u3150:
  2696     03E3                     l2519:
  2697                           
  2698                           ;main.c: 585:     csFlag.HiBeam = 1;
  2699     03E3  1540               	bsf	_csFlag,2
  2700     03E4  2BE6               	goto	l449
  2701     03E5                     l448:	
  2702                           ;main.c: 586:   else
  2703                           
  2704                           
  2705                           ;main.c: 587:     csFlag.HiBeam = 0;
  2706     03E5  1140               	bcf	_csFlag,2
  2707     03E6                     l449:
  2708                           
  2709                           ;main.c: 590:   if (D3.turnLight_L == 1)
  2710     03E6  1EC1               	btfss	_D3,5
  2711     03E7  2BE9               	goto	u3161
  2712     03E8  2BEA               	goto	u3160
  2713     03E9                     u3161:
  2714     03E9  2BEC               	goto	l450
  2715     03EA                     u3160:
  2716     03EA                     l2521:
  2717                           
  2718                           ;main.c: 591:     csFlag.turnLight_L = 1;
  2719     03EA  14C0               	bsf	_csFlag,1
  2720     03EB  2BED               	goto	l451
  2721     03EC                     l450:	
  2722                           ;main.c: 592:   else
  2723                           
  2724                           
  2725                           ;main.c: 593:     csFlag.turnLight_L = 0;
  2726     03EC  10C0               	bcf	_csFlag,1
  2727     03ED                     l451:
  2728                           
  2729                           ;main.c: 596:   if (D3.turnLight_R == 1)
  2730     03ED  1F41               	btfss	_D3,6
  2731     03EE  2BF0               	goto	u3171
  2732     03EF  2BF1               	goto	u3170
  2733     03F0                     u3171:
  2734     03F0  2BF3               	goto	l452
  2735     03F1                     u3170:
  2736     03F1                     l2523:
  2737                           
  2738                           ;main.c: 597:     csFlag.turnLight_R = 1;
  2739     03F1  1440               	bsf	_csFlag,0
  2740     03F2  2BF4               	goto	l454
  2741     03F3                     l452:	
  2742                           ;main.c: 598:   else
  2743                           
  2744                           
  2745                           ;main.c: 599:     csFlag.turnLight_R = 0;
  2746     03F3  1040               	bcf	_csFlag,0
  2747     03F4                     l454:
  2748     03F4  0008               	return
  2749     03F5                     __end_of_check_input:
  2750                           
  2751                           	psect	text3
  2752     0430                     __ptext3:	
  2753 ;; *************** function _SYSTEM_Initialize *****************
  2754 ;; Defined at:
  2755 ;;		line 50 in file "mcc_generated_files/mcc.c"
  2756 ;; Parameters:    Size  Location     Type
  2757 ;;		None
  2758 ;; Auto vars:     Size  Location     Type
  2759 ;;		None
  2760 ;; Return value:  Size  Location     Type
  2761 ;;                  1    wreg      void 
  2762 ;; Registers used:
  2763 ;;		wreg, status,2, status,0, pclath, cstack
  2764 ;; Tracked objects:
  2765 ;;		On entry : 0/0
  2766 ;;		On exit  : 0/0
  2767 ;;		Unchanged: 0/0
  2768 ;; Data sizes:     COMMON   BANK0   BANK1   BANK2   BANK3   BANK4   BANK5   BANK6
  2769 ;;      Params:         0       0       0       0       0       0       0       0
  2770 ;;      Locals:         0       0       0       0       0       0       0       0
  2771 ;;      Temps:          0       0       0       0       0       0       0       0
  2772 ;;      Totals:         0       0       0       0       0       0       0       0
  2773 ;;Total ram usage:        0 bytes
  2774 ;; Hardware stack levels used: 1
  2775 ;; Hardware stack levels required when called: 6
  2776 ;; This function calls:
  2777 ;;		_ECCP3_Initialize
  2778 ;;		_EPWM1_Initialize
  2779 ;;		_OSCILLATOR_Initialize
  2780 ;;		_PIN_MANAGER_Initialize
  2781 ;;		_TMR0_Initialize
  2782 ;;		_TMR1_Initialize
  2783 ;;		_TMR2_Initialize
  2784 ;;		_WDT_Initialize
  2785 ;; This function is called by:
  2786 ;;		_main
  2787 ;; This function uses a non-reentrant model
  2788 ;;
  2789                           
  2790     0430                     _SYSTEM_Initialize:	
  2791                           ;psect for function _SYSTEM_Initialize
  2792                           
  2793     0430                     l2321:	
  2794                           ;incstack = 0
  2795                           ; Regs used in _SYSTEM_Initialize: [wreg+status,2+status,0+pclath+cstack]
  2796                           
  2797                           
  2798                           ;mcc_generated_files/mcc.c: 53:     PIN_MANAGER_Initialize();
  2799     0430  3183  23F5  3184   	fcall	_PIN_MANAGER_Initialize
  2800                           
  2801                           ;mcc_generated_files/mcc.c: 54:     OSCILLATOR_Initialize();
  2802     0433  3184  24BA  3184   	fcall	_OSCILLATOR_Initialize
  2803                           
  2804                           ;mcc_generated_files/mcc.c: 55:     WDT_Initialize();
  2805     0436  3184  24F6  3184   	fcall	_WDT_Initialize
  2806                           
  2807                           ;mcc_generated_files/mcc.c: 56:     EPWM1_Initialize();
  2808     0439  3184  24A0  3184   	fcall	_EPWM1_Initialize
  2809                           
  2810                           ;mcc_generated_files/mcc.c: 57:     ECCP3_Initialize();
  2811     043C  3184  24C6  3184   	fcall	_ECCP3_Initialize
  2812                           
  2813                           ;mcc_generated_files/mcc.c: 58:     TMR2_Initialize();
  2814     043F  3184  24D0  3184   	fcall	_TMR2_Initialize
  2815                           
  2816                           ;mcc_generated_files/mcc.c: 59:     TMR1_Initialize();
  2817     0442  3184  2493  3184   	fcall	_TMR1_Initialize
  2818                           
  2819                           ;mcc_generated_files/mcc.c: 60:     TMR0_Initialize();
  2820     0445  3184  2461  3184   	fcall	_TMR0_Initialize
  2821     0448                     l29:
  2822     0448  0008               	return
  2823     0449                     __end_of_SYSTEM_Initialize:
  2824                           
  2825                           	psect	text4
  2826     04F6                     __ptext4:	
  2827 ;; *************** function _WDT_Initialize *****************
  2828 ;; Defined at:
  2829 ;;		line 77 in file "mcc_generated_files/mcc.c"
  2830 ;; Parameters:    Size  Location     Type
  2831 ;;		None
  2832 ;; Auto vars:     Size  Location     Type
  2833 ;;		None
  2834 ;; Return value:  Size  Location     Type
  2835 ;;                  1    wreg      void 
  2836 ;; Registers used:
  2837 ;;		wreg
  2838 ;; Tracked objects:
  2839 ;;		On entry : 0/0
  2840 ;;		On exit  : 0/0
  2841 ;;		Unchanged: 0/0
  2842 ;; Data sizes:     COMMON   BANK0   BANK1   BANK2   BANK3   BANK4   BANK5   BANK6
  2843 ;;      Params:         0       0       0       0       0       0       0       0
  2844 ;;      Locals:         0       0       0       0       0       0       0       0
  2845 ;;      Temps:          0       0       0       0       0       0       0       0
  2846 ;;      Totals:         0       0       0       0       0       0       0       0
  2847 ;;Total ram usage:        0 bytes
  2848 ;; Hardware stack levels used: 1
  2849 ;; Hardware stack levels required when called: 4
  2850 ;; This function calls:
  2851 ;;		Nothing
  2852 ;; This function is called by:
  2853 ;;		_SYSTEM_Initialize
  2854 ;; This function uses a non-reentrant model
  2855 ;;
  2856                           
  2857     04F6                     _WDT_Initialize:	
  2858                           ;psect for function _WDT_Initialize
  2859                           
  2860     04F6                     l2241:	
  2861                           ;incstack = 0
  2862                           ; Regs used in _WDT_Initialize: [wreg]
  2863                           
  2864                           
  2865                           ;mcc_generated_files/mcc.c: 80:     WDTCON = 0x16;
  2866     04F6  3016               	movlw	22
  2867     04F7  0021               	movlb	1	; select bank1
  2868     04F8  0097               	movwf	23	;volatile
  2869     04F9                     l38:
  2870     04F9  0008               	return
  2871     04FA                     __end_of_WDT_Initialize:
  2872                           
  2873                           	psect	text5
  2874     04D0                     __ptext5:	
  2875 ;; *************** function _TMR2_Initialize *****************
  2876 ;; Defined at:
  2877 ;;		line 62 in file "mcc_generated_files/tmr2.c"
  2878 ;; Parameters:    Size  Location     Type
  2879 ;;		None
  2880 ;; Auto vars:     Size  Location     Type
  2881 ;;		None
  2882 ;; Return value:  Size  Location     Type
  2883 ;;                  1    wreg      void 
  2884 ;; Registers used:
  2885 ;;		wreg, status,2
  2886 ;; Tracked objects:
  2887 ;;		On entry : 0/0
  2888 ;;		On exit  : 0/0
  2889 ;;		Unchanged: 0/0
  2890 ;; Data sizes:     COMMON   BANK0   BANK1   BANK2   BANK3   BANK4   BANK5   BANK6
  2891 ;;      Params:         0       0       0       0       0       0       0       0
  2892 ;;      Locals:         0       0       0       0       0       0       0       0
  2893 ;;      Temps:          0       0       0       0       0       0       0       0
  2894 ;;      Totals:         0       0       0       0       0       0       0       0
  2895 ;;Total ram usage:        0 bytes
  2896 ;; Hardware stack levels used: 1
  2897 ;; Hardware stack levels required when called: 4
  2898 ;; This function calls:
  2899 ;;		Nothing
  2900 ;; This function is called by:
  2901 ;;		_SYSTEM_Initialize
  2902 ;; This function uses a non-reentrant model
  2903 ;;
  2904                           
  2905     04D0                     _TMR2_Initialize:	
  2906                           ;psect for function _TMR2_Initialize
  2907                           
  2908     04D0                     l2267:	
  2909                           ;incstack = 0
  2910                           ; Regs used in _TMR2_Initialize: [wreg+status,2]
  2911                           
  2912                           
  2913                           ;mcc_generated_files/tmr2.c: 67:     PR2 = 0xC8;
  2914     04D0  30C8               	movlw	200
  2915     04D1  0020               	movlb	0	; select bank0
  2916     04D2  009B               	movwf	27	;volatile
  2917     04D3                     l2269:
  2918                           
  2919                           ;mcc_generated_files/tmr2.c: 70:     TMR2 = 0x00;
  2920     04D3  019A               	clrf	26	;volatile
  2921     04D4                     l2271:
  2922                           
  2923                           ;mcc_generated_files/tmr2.c: 73:     PIR1bits.TMR2IF = 0;
  2924     04D4  1091               	bcf	17,1	;volatile
  2925     04D5                     l2273:
  2926                           
  2927                           ;mcc_generated_files/tmr2.c: 76:     T2CON = 0x07;
  2928     04D5  3007               	movlw	7
  2929     04D6  009C               	movwf	28	;volatile
  2930     04D7                     l195:
  2931     04D7  0008               	return
  2932     04D8                     __end_of_TMR2_Initialize:
  2933                           
  2934                           	psect	text6
  2935     0493                     __ptext6:	
  2936 ;; *************** function _TMR1_Initialize *****************
  2937 ;; Defined at:
  2938 ;;		line 63 in file "mcc_generated_files/tmr1.c"
  2939 ;; Parameters:    Size  Location     Type
  2940 ;;		None
  2941 ;; Auto vars:     Size  Location     Type
  2942 ;;		None
  2943 ;; Return value:  Size  Location     Type
  2944 ;;                  1    wreg      void 
  2945 ;; Registers used:
  2946 ;;		wreg, status,2
  2947 ;; Tracked objects:
  2948 ;;		On entry : 0/0
  2949 ;;		On exit  : 0/0
  2950 ;;		Unchanged: 0/0
  2951 ;; Data sizes:     COMMON   BANK0   BANK1   BANK2   BANK3   BANK4   BANK5   BANK6
  2952 ;;      Params:         0       0       0       0       0       0       0       0
  2953 ;;      Locals:         0       0       0       0       0       0       0       0
  2954 ;;      Temps:          0       0       0       0       0       0       0       0
  2955 ;;      Totals:         0       0       0       0       0       0       0       0
  2956 ;;Total ram usage:        0 bytes
  2957 ;; Hardware stack levels used: 1
  2958 ;; Hardware stack levels required when called: 4
  2959 ;; This function calls:
  2960 ;;		Nothing
  2961 ;; This function is called by:
  2962 ;;		_SYSTEM_Initialize
  2963 ;; This function uses a non-reentrant model
  2964 ;;
  2965                           
  2966     0493                     _TMR1_Initialize:	
  2967                           ;psect for function _TMR1_Initialize
  2968                           
  2969     0493                     l2275:	
  2970                           ;incstack = 0
  2971                           ; Regs used in _TMR1_Initialize: [wreg+status,2]
  2972                           
  2973                           
  2974                           ;mcc_generated_files/tmr1.c: 68:     T1GCON = 0x10;
  2975     0493  3010               	movlw	16
  2976     0494  0020               	movlb	0	; select bank0
  2977     0495  0099               	movwf	25	;volatile
  2978     0496                     l2277:
  2979                           
  2980                           ;mcc_generated_files/tmr1.c: 71:     TMR1H = 0x00;
  2981     0496  0197               	clrf	23	;volatile
  2982     0497                     l2279:
  2983                           
  2984                           ;mcc_generated_files/tmr1.c: 74:     TMR1L = 0x00;
  2985     0497  0196               	clrf	22	;volatile
  2986     0498                     l2281:
  2987                           
  2988                           ;mcc_generated_files/tmr1.c: 77:     PIR1bits.TMR1IF = 0;
  2989     0498  1011               	bcf	17,0	;volatile
  2990                           
  2991                           ;mcc_generated_files/tmr1.c: 80:     timer1ReloadVal=(uint16_t)((TMR1H << 8) | TMR1L);
  2992     0499  0817               	movf	23,w	;volatile
  2993     049A  00B6               	movwf	_timer1ReloadVal+1	;volatile
  2994     049B  0816               	movf	22,w	;volatile
  2995     049C  00B5               	movwf	_timer1ReloadVal	;volatile
  2996                           
  2997                           ;mcc_generated_files/tmr1.c: 83:     T1CON = 0x01;
  2998     049D  3001               	movlw	1
  2999     049E  0098               	movwf	24	;volatile
  3000     049F                     l78:
  3001     049F  0008               	return
  3002     04A0                     __end_of_TMR1_Initialize:
  3003                           
  3004                           	psect	text7
  3005     0461                     __ptext7:	
  3006 ;; *************** function _TMR0_Initialize *****************
  3007 ;; Defined at:
  3008 ;;		line 64 in file "mcc_generated_files/tmr0.c"
  3009 ;; Parameters:    Size  Location     Type
  3010 ;;		None
  3011 ;; Auto vars:     Size  Location     Type
  3012 ;;		None
  3013 ;; Return value:  Size  Location     Type
  3014 ;;                  1    wreg      void 
  3015 ;; Registers used:
  3016 ;;		wreg, status,2, status,0, pclath, cstack
  3017 ;; Tracked objects:
  3018 ;;		On entry : 0/0
  3019 ;;		On exit  : 0/0
  3020 ;;		Unchanged: 0/0
  3021 ;; Data sizes:     COMMON   BANK0   BANK1   BANK2   BANK3   BANK4   BANK5   BANK6
  3022 ;;      Params:         0       0       0       0       0       0       0       0
  3023 ;;      Locals:         0       0       0       0       0       0       0       0
  3024 ;;      Temps:          0       0       0       0       0       0       0       0
  3025 ;;      Totals:         0       0       0       0       0       0       0       0
  3026 ;;Total ram usage:        0 bytes
  3027 ;; Hardware stack levels used: 1
  3028 ;; Hardware stack levels required when called: 5
  3029 ;; This function calls:
  3030 ;;		_TMR0_SetInterruptHandler
  3031 ;; This function is called by:
  3032 ;;		_SYSTEM_Initialize
  3033 ;; This function uses a non-reentrant model
  3034 ;;
  3035                           
  3036     0461                     _TMR0_Initialize:	
  3037                           ;psect for function _TMR0_Initialize
  3038                           
  3039     0461                     l2283:	
  3040                           ;incstack = 0
  3041                           ; Regs used in _TMR0_Initialize: [wreg+status,2+status,0+pclath+cstack]
  3042                           
  3043                           
  3044                           ;mcc_generated_files/tmr0.c: 69:     OPTION_REG = (uint8_t)((OPTION_REG & 0xC0) | (0xD4 
      +                          & 0x3F));
  3045     0461  0021               	movlb	1	; select bank1
  3046     0462  0815               	movf	21,w	;volatile
  3047     0463  39C0               	andlw	192
  3048     0464  3814               	iorlw	20
  3049     0465  0095               	movwf	21	;volatile
  3050     0466                     l2285:
  3051                           
  3052                           ;mcc_generated_files/tmr0.c: 72:     TMR0 = 0x06;
  3053     0466  3006               	movlw	6
  3054     0467  0020               	movlb	0	; select bank0
  3055     0468  0095               	movwf	21	;volatile
  3056     0469                     l2287:
  3057                           
  3058                           ;mcc_generated_files/tmr0.c: 75:     timer0ReloadVal= 6;
  3059     0469  3006               	movlw	6
  3060     046A  00F5               	movwf	_timer0ReloadVal	;volatile
  3061     046B                     l2289:
  3062                           
  3063                           ;mcc_generated_files/tmr0.c: 78:     INTCONbits.TMR0IF = 0;
  3064     046B  110B               	bcf	11,2	;volatile
  3065     046C                     l2291:
  3066                           
  3067                           ;mcc_generated_files/tmr0.c: 81:     INTCONbits.TMR0IE = 1;
  3068     046C  168B               	bsf	11,5	;volatile
  3069     046D                     l2293:
  3070                           
  3071                           ;mcc_generated_files/tmr0.c: 84:     TMR0_SetInterruptHandler(TMR0_DefaultInterruptHandl
      +                          er);
  3072     046D  30FA               	movlw	low _TMR0_DefaultInterruptHandler
  3073     046E  00C5               	movwf	TMR0_SetInterruptHandler@InterruptHandler
  3074     046F  3004               	movlw	high _TMR0_DefaultInterruptHandler
  3075     0470  00C6               	movwf	TMR0_SetInterruptHandler@InterruptHandler+1
  3076     0471  3184  24E4  3184   	fcall	_TMR0_SetInterruptHandler
  3077     0474                     l157:
  3078     0474  0008               	return
  3079     0475                     __end_of_TMR0_Initialize:
  3080                           
  3081                           	psect	text8
  3082     04E4                     __ptext8:	
  3083 ;; *************** function _TMR0_SetInterruptHandler *****************
  3084 ;; Defined at:
  3085 ;;		line 140 in file "mcc_generated_files/tmr0.c"
  3086 ;; Parameters:    Size  Location     Type
  3087 ;;  InterruptHan    2    0[BANK0 ] PTR FTN()void 
  3088 ;;		 -> TMR0_EvenHandler(1), TMR0_DefaultInterruptHandler(1), 
  3089 ;; Auto vars:     Size  Location     Type
  3090 ;;		None
  3091 ;; Return value:  Size  Location     Type
  3092 ;;                  1    wreg      void 
  3093 ;; Registers used:
  3094 ;;		wreg
  3095 ;; Tracked objects:
  3096 ;;		On entry : 0/0
  3097 ;;		On exit  : 0/0
  3098 ;;		Unchanged: 0/0
  3099 ;; Data sizes:     COMMON   BANK0   BANK1   BANK2   BANK3   BANK4   BANK5   BANK6
  3100 ;;      Params:         0       2       0       0       0       0       0       0
  3101 ;;      Locals:         0       0       0       0       0       0       0       0
  3102 ;;      Temps:          0       0       0       0       0       0       0       0
  3103 ;;      Totals:         0       2       0       0       0       0       0       0
  3104 ;;Total ram usage:        2 bytes
  3105 ;; Hardware stack levels used: 1
  3106 ;; Hardware stack levels required when called: 4
  3107 ;; This function calls:
  3108 ;;		Nothing
  3109 ;; This function is called by:
  3110 ;;		_TMR0_Initialize
  3111 ;;		_main
  3112 ;; This function uses a non-reentrant model
  3113 ;;
  3114                           
  3115     04E4                     _TMR0_SetInterruptHandler:	
  3116                           ;psect for function _TMR0_SetInterruptHandler
  3117                           
  3118     04E4                     l2209:	
  3119                           ;incstack = 0
  3120                           ; Regs used in _TMR0_SetInterruptHandler: [wreg]
  3121                           
  3122                           
  3123                           ;mcc_generated_files/tmr0.c: 141:     TMR0_InterruptHandler = InterruptHandler;
  3124     04E4  0020               	movlb	0	; select bank0
  3125     04E5  0846               	movf	TMR0_SetInterruptHandler@InterruptHandler+1,w
  3126     04E6  00B4               	movwf	_TMR0_InterruptHandler+1
  3127     04E7  0845               	movf	TMR0_SetInterruptHandler@InterruptHandler,w
  3128     04E8  00B3               	movwf	_TMR0_InterruptHandler
  3129     04E9                     l179:
  3130     04E9  0008               	return
  3131     04EA                     __end_of_TMR0_SetInterruptHandler:
  3132                           
  3133                           	psect	text9
  3134     03F5                     __ptext9:	
  3135 ;; *************** function _PIN_MANAGER_Initialize *****************
  3136 ;; Defined at:
  3137 ;;		line 55 in file "mcc_generated_files/pin_manager.c"
  3138 ;; Parameters:    Size  Location     Type
  3139 ;;		None
  3140 ;; Auto vars:     Size  Location     Type
  3141 ;;		None
  3142 ;; Return value:  Size  Location     Type
  3143 ;;                  1    wreg      void 
  3144 ;; Registers used:
  3145 ;;		wreg, status,2
  3146 ;; Tracked objects:
  3147 ;;		On entry : 0/0
  3148 ;;		On exit  : 0/0
  3149 ;;		Unchanged: 0/0
  3150 ;; Data sizes:     COMMON   BANK0   BANK1   BANK2   BANK3   BANK4   BANK5   BANK6
  3151 ;;      Params:         0       0       0       0       0       0       0       0
  3152 ;;      Locals:         0       0       0       0       0       0       0       0
  3153 ;;      Temps:          0       0       0       0       0       0       0       0
  3154 ;;      Totals:         0       0       0       0       0       0       0       0
  3155 ;;Total ram usage:        0 bytes
  3156 ;; Hardware stack levels used: 1
  3157 ;; Hardware stack levels required when called: 4
  3158 ;; This function calls:
  3159 ;;		Nothing
  3160 ;; This function is called by:
  3161 ;;		_SYSTEM_Initialize
  3162 ;; This function uses a non-reentrant model
  3163 ;;
  3164                           
  3165     03F5                     _PIN_MANAGER_Initialize:	
  3166                           ;psect for function _PIN_MANAGER_Initialize
  3167                           
  3168     03F5                     l2211:	
  3169                           ;incstack = 0
  3170                           ; Regs used in _PIN_MANAGER_Initialize: [wreg+status,2]
  3171                           
  3172                           
  3173                           ;mcc_generated_files/pin_manager.c: 60:     LATE = 0x00;
  3174     03F5  0022               	movlb	2	; select bank2
  3175     03F6  0190               	clrf	16	;volatile
  3176                           
  3177                           ;mcc_generated_files/pin_manager.c: 61:     LATA = 0x00;
  3178     03F7  018C               	clrf	12	;volatile
  3179     03F8                     l2213:
  3180                           
  3181                           ;mcc_generated_files/pin_manager.c: 62:     LATB = 0x08;
  3182     03F8  3008               	movlw	8
  3183     03F9  008D               	movwf	13	;volatile
  3184     03FA                     l2215:
  3185                           
  3186                           ;mcc_generated_files/pin_manager.c: 63:     LATC = 0x10;
  3187     03FA  3010               	movlw	16
  3188     03FB  008E               	movwf	14	;volatile
  3189     03FC                     l2217:
  3190                           
  3191                           ;mcc_generated_files/pin_manager.c: 68:     TRISE = 0x08;
  3192     03FC  3008               	movlw	8
  3193     03FD  0021               	movlb	1	; select bank1
  3194     03FE  0090               	movwf	16	;volatile
  3195     03FF                     l2219:
  3196                           
  3197                           ;mcc_generated_files/pin_manager.c: 69:     TRISA = 0xBC;
  3198     03FF  30BC               	movlw	188
  3199     0400  008C               	movwf	12	;volatile
  3200     0401                     l2221:
  3201                           
  3202                           ;mcc_generated_files/pin_manager.c: 70:     TRISB = 0xFE;
  3203     0401  30FE               	movlw	254
  3204     0402  008D               	movwf	13	;volatile
  3205     0403                     l2223:
  3206                           
  3207                           ;mcc_generated_files/pin_manager.c: 71:     TRISC = 0xFB;
  3208     0403  30FB               	movlw	251
  3209     0404  008E               	movwf	14	;volatile
  3210     0405                     l2225:
  3211                           
  3212                           ;mcc_generated_files/pin_manager.c: 76:     ANSELB = 0x36;
  3213     0405  3036               	movlw	54
  3214     0406  0023               	movlb	3	; select bank3
  3215     0407  008D               	movwf	13	;volatile
  3216     0408                     l2227:
  3217                           
  3218                           ;mcc_generated_files/pin_manager.c: 77:     ANSELA = 0x3C;
  3219     0408  303C               	movlw	60
  3220     0409  008C               	movwf	12	;volatile
  3221                           
  3222                           ;mcc_generated_files/pin_manager.c: 82:     WPUE = 0x00;
  3223     040A  0024               	movlb	4	; select bank4
  3224     040B  0190               	clrf	16	;volatile
  3225     040C                     l2229:
  3226                           
  3227                           ;mcc_generated_files/pin_manager.c: 83:     WPUB = 0x08;
  3228     040C  3008               	movlw	8
  3229     040D  008D               	movwf	13	;volatile
  3230     040E                     l2231:
  3231                           
  3232                           ;mcc_generated_files/pin_manager.c: 84:     OPTION_REGbits.nWPUEN = 0;
  3233     040E  0021               	movlb	1	; select bank1
  3234     040F  1395               	bcf	21,7	;volatile
  3235     0410                     l2233:
  3236                           
  3237                           ;mcc_generated_files/pin_manager.c: 90:     APFCON = 0x00;
  3238     0410  0022               	movlb	2	; select bank2
  3239     0411  019D               	clrf	29	;volatile
  3240     0412                     l135:
  3241     0412  0008               	return
  3242     0413                     __end_of_PIN_MANAGER_Initialize:
  3243                           
  3244                           	psect	text10
  3245     04BA                     __ptext10:	
  3246 ;; *************** function _OSCILLATOR_Initialize *****************
  3247 ;; Defined at:
  3248 ;;		line 63 in file "mcc_generated_files/mcc.c"
  3249 ;; Parameters:    Size  Location     Type
  3250 ;;		None
  3251 ;; Auto vars:     Size  Location     Type
  3252 ;;		None
  3253 ;; Return value:  Size  Location     Type
  3254 ;;                  1    wreg      void 
  3255 ;; Registers used:
  3256 ;;		wreg, status,2
  3257 ;; Tracked objects:
  3258 ;;		On entry : 0/0
  3259 ;;		On exit  : 0/0
  3260 ;;		Unchanged: 0/0
  3261 ;; Data sizes:     COMMON   BANK0   BANK1   BANK2   BANK3   BANK4   BANK5   BANK6
  3262 ;;      Params:         0       0       0       0       0       0       0       0
  3263 ;;      Locals:         0       0       0       0       0       0       0       0
  3264 ;;      Temps:          0       0       0       0       0       0       0       0
  3265 ;;      Totals:         0       0       0       0       0       0       0       0
  3266 ;;Total ram usage:        0 bytes
  3267 ;; Hardware stack levels used: 1
  3268 ;; Hardware stack levels required when called: 4
  3269 ;; This function calls:
  3270 ;;		Nothing
  3271 ;; This function is called by:
  3272 ;;		_SYSTEM_Initialize
  3273 ;; This function uses a non-reentrant model
  3274 ;;
  3275                           
  3276     04BA                     _OSCILLATOR_Initialize:	
  3277                           ;psect for function _OSCILLATOR_Initialize
  3278                           
  3279     04BA                     l2235:	
  3280                           ;incstack = 0
  3281                           ; Regs used in _OSCILLATOR_Initialize: [wreg+status,2]
  3282                           
  3283                           
  3284                           ;mcc_generated_files/mcc.c: 66:     OSCCON = 0x70;
  3285     04BA  3070               	movlw	112
  3286     04BB  0021               	movlb	1	; select bank1
  3287     04BC  0099               	movwf	25	;volatile
  3288     04BD                     l2237:
  3289                           
  3290                           ;mcc_generated_files/mcc.c: 68:     OSCTUNE = 0x00;
  3291     04BD  0198               	clrf	24	;volatile
  3292     04BE                     l2239:
  3293                           
  3294                           ;mcc_generated_files/mcc.c: 70:     BORCON = 0x00;
  3295     04BE  0022               	movlb	2	; select bank2
  3296     04BF  0196               	clrf	22	;volatile
  3297     04C0                     l32:	
  3298                           ;mcc_generated_files/mcc.c: 73:     {;mcc_generated_files/mcc.c: 74:     }
  3299                           
  3300                           
  3301                           ;mcc_generated_files/mcc.c: 72:     while(PLLR == 0)
  3302     04C0  0021               	movlb	1	; select bank1
  3303     04C1  1F1A               	btfss	26,6	;volatile
  3304     04C2  2CC4               	goto	u2311
  3305     04C3  2CC5               	goto	u2310
  3306     04C4                     u2311:
  3307     04C4  2CC0               	goto	l32
  3308     04C5                     u2310:
  3309     04C5                     l35:
  3310     04C5  0008               	return
  3311     04C6                     __end_of_OSCILLATOR_Initialize:
  3312                           
  3313                           	psect	text11
  3314     04A0                     __ptext11:	
  3315 ;; *************** function _EPWM1_Initialize *****************
  3316 ;; Defined at:
  3317 ;;		line 64 in file "mcc_generated_files/epwm1.c"
  3318 ;; Parameters:    Size  Location     Type
  3319 ;;		None
  3320 ;; Auto vars:     Size  Location     Type
  3321 ;;		None
  3322 ;; Return value:  Size  Location     Type
  3323 ;;                  1    wreg      void 
  3324 ;; Registers used:
  3325 ;;		wreg, status,2, status,0
  3326 ;; Tracked objects:
  3327 ;;		On entry : 0/0
  3328 ;;		On exit  : 0/0
  3329 ;;		Unchanged: 0/0
  3330 ;; Data sizes:     COMMON   BANK0   BANK1   BANK2   BANK3   BANK4   BANK5   BANK6
  3331 ;;      Params:         0       0       0       0       0       0       0       0
  3332 ;;      Locals:         0       0       0       0       0       0       0       0
  3333 ;;      Temps:          0       0       0       0       0       0       0       0
  3334 ;;      Totals:         0       0       0       0       0       0       0       0
  3335 ;;Total ram usage:        0 bytes
  3336 ;; Hardware stack levels used: 1
  3337 ;; Hardware stack levels required when called: 4
  3338 ;; This function calls:
  3339 ;;		Nothing
  3340 ;; This function is called by:
  3341 ;;		_SYSTEM_Initialize
  3342 ;; This function uses a non-reentrant model
  3343 ;;
  3344                           
  3345     04A0                     _EPWM1_Initialize:	
  3346                           ;psect for function _EPWM1_Initialize
  3347                           
  3348     04A0                     l2243:	
  3349                           ;incstack = 0
  3350                           ; Regs used in _EPWM1_Initialize: [wreg+status,2+status,0]
  3351                           
  3352                           
  3353                           ;mcc_generated_files/epwm1.c: 69:  CCP1CON = 0x0C;
  3354     04A0  300C               	movlw	12
  3355     04A1  0025               	movlb	5	; select bank5
  3356     04A2  0093               	movwf	19	;volatile
  3357     04A3                     l2245:
  3358                           
  3359                           ;mcc_generated_files/epwm1.c: 72:  ECCP1AS = 0x00;
  3360     04A3  0195               	clrf	21	;volatile
  3361     04A4                     l2247:
  3362                           
  3363                           ;mcc_generated_files/epwm1.c: 75:  PWM1CON = 0x80;
  3364     04A4  3080               	movlw	128
  3365     04A5  0094               	movwf	20	;volatile
  3366     04A6                     l2249:
  3367                           
  3368                           ;mcc_generated_files/epwm1.c: 78:  PSTR1CON = 0x01;
  3369     04A6  3001               	movlw	1
  3370     04A7  0096               	movwf	22	;volatile
  3371     04A8                     l2251:
  3372                           
  3373                           ;mcc_generated_files/epwm1.c: 81:  CCPR1H = 0x00;
  3374     04A8  0192               	clrf	18	;volatile
  3375     04A9                     l2253:
  3376                           
  3377                           ;mcc_generated_files/epwm1.c: 84:  CCPR1L = 0x00;
  3378     04A9  0191               	clrf	17	;volatile
  3379     04AA                     l2255:
  3380                           
  3381                           ;mcc_generated_files/epwm1.c: 87:  CCPTMRS0bits.C1TSEL = 0x0;
  3382     04AA  30FC               	movlw	-4
  3383     04AB  059E               	andwf	30,f	;volatile
  3384     04AC                     l249:
  3385     04AC  0008               	return
  3386     04AD                     __end_of_EPWM1_Initialize:
  3387                           
  3388                           	psect	text12
  3389     04C6                     __ptext12:	
  3390 ;; *************** function _ECCP3_Initialize *****************
  3391 ;; Defined at:
  3392 ;;		line 59 in file "mcc_generated_files/eccp3.c"
  3393 ;; Parameters:    Size  Location     Type
  3394 ;;		None
  3395 ;; Auto vars:     Size  Location     Type
  3396 ;;		None
  3397 ;; Return value:  Size  Location     Type
  3398 ;;                  1    wreg      void 
  3399 ;; Registers used:
  3400 ;;		wreg, status,2
  3401 ;; Tracked objects:
  3402 ;;		On entry : 0/0
  3403 ;;		On exit  : 0/0
  3404 ;;		Unchanged: 0/0
  3405 ;; Data sizes:     COMMON   BANK0   BANK1   BANK2   BANK3   BANK4   BANK5   BANK6
  3406 ;;      Params:         0       0       0       0       0       0       0       0
  3407 ;;      Locals:         0       0       0       0       0       0       0       0
  3408 ;;      Temps:          0       0       0       0       0       0       0       0
  3409 ;;      Totals:         0       0       0       0       0       0       0       0
  3410 ;;Total ram usage:        0 bytes
  3411 ;; Hardware stack levels used: 1
  3412 ;; Hardware stack levels required when called: 4
  3413 ;; This function calls:
  3414 ;;		Nothing
  3415 ;; This function is called by:
  3416 ;;		_SYSTEM_Initialize
  3417 ;; This function uses a non-reentrant model
  3418 ;;
  3419                           
  3420     04C6                     _ECCP3_Initialize:	
  3421                           ;psect for function _ECCP3_Initialize
  3422                           
  3423     04C6                     l2257:	
  3424                           ;incstack = 0
  3425                           ; Regs used in _ECCP3_Initialize: [wreg+status,2]
  3426                           
  3427                           
  3428                           ;mcc_generated_files/eccp3.c: 64:  CCP3CON = 0x05;
  3429     04C6  3005               	movlw	5
  3430     04C7  0026               	movlb	6	; select bank6
  3431     04C8  0093               	movwf	19	;volatile
  3432     04C9                     l2259:
  3433                           
  3434                           ;mcc_generated_files/eccp3.c: 67:  CCPR3H = 0x00;
  3435     04C9  0192               	clrf	18	;volatile
  3436     04CA                     l2261:
  3437                           
  3438                           ;mcc_generated_files/eccp3.c: 70:  CCPR3L = 0x00;
  3439     04CA  0191               	clrf	17	;volatile
  3440     04CB                     l2263:
  3441                           
  3442                           ;mcc_generated_files/eccp3.c: 73:     PIR3bits.CCP3IF = 0;
  3443     04CB  0020               	movlb	0	; select bank0
  3444     04CC  1213               	bcf	19,4	;volatile
  3445     04CD                     l2265:
  3446                           
  3447                           ;mcc_generated_files/eccp3.c: 76:     PIE3bits.CCP3IE = 1;
  3448     04CD  0021               	movlb	1	; select bank1
  3449     04CE  1613               	bsf	19,4	;volatile
  3450     04CF                     l229:
  3451     04CF  0008               	return
  3452     04D0                     __end_of_ECCP3_Initialize:
  3453                           
  3454                           	psect	text13
  3455     0046                     __ptext13:	
  3456 ;; *************** function _LED_output *****************
  3457 ;; Defined at:
  3458 ;;		line 342 in file "main.c"
  3459 ;; Parameters:    Size  Location     Type
  3460 ;;		None
  3461 ;; Auto vars:     Size  Location     Type
  3462 ;;  i               1    2[BANK0 ] unsigned char 
  3463 ;;  crc8            1    1[BANK0 ] unsigned char 
  3464 ;; Return value:  Size  Location     Type
  3465 ;;                  1    wreg      void 
  3466 ;; Registers used:
  3467 ;;		wreg, fsr1l, fsr1h, status,2, status,0, pclath, cstack
  3468 ;; Tracked objects:
  3469 ;;		On entry : 0/0
  3470 ;;		On exit  : 0/0
  3471 ;;		Unchanged: 0/0
  3472 ;; Data sizes:     COMMON   BANK0   BANK1   BANK2   BANK3   BANK4   BANK5   BANK6
  3473 ;;      Params:         0       0       0       0       0       0       0       0
  3474 ;;      Locals:         0       2       0       0       0       0       0       0
  3475 ;;      Temps:          0       1       0       0       0       0       0       0
  3476 ;;      Totals:         0       3       0       0       0       0       0       0
  3477 ;;Total ram usage:        3 bytes
  3478 ;; Hardware stack levels used: 1
  3479 ;; Hardware stack levels required when called: 5
  3480 ;; This function calls:
  3481 ;;		_DRL_ON
  3482 ;;		_LoBeam_ON
  3483 ;;		_POS_ON
  3484 ;; This function is called by:
  3485 ;;		_main
  3486 ;; This function uses a non-reentrant model
  3487 ;;
  3488                           
  3489     0046                     _LED_output:	
  3490                           ;psect for function _LED_output
  3491                           
  3492     0046                     l2333:	
  3493                           ;incstack = 0
  3494                           ; Regs used in _LED_output: [wreg+fsr1l+fsr1h+status,2+status,0+pclath+cstack]
  3495                           
  3496                           
  3497                           ;main.c: 343:   uint8_t crc8 = CS[csFlag.Byte];
  3498     0046  0020               	movlb	0	; select bank0
  3499     0047  0840               	movf	_csFlag,w
  3500     0048  3EA0               	addlw	(low (_CS| 0))& (0+255)
  3501     0049  0086               	movwf	6
  3502     004A  0187               	clrf	7
  3503     004B  0801               	movf	1,w
  3504     004C  00C6               	movwf	LED_output@crc8
  3505     004D                     l2335:
  3506                           
  3507                           ;main.c: 345:   if (data_buf[10] != crc8)
  3508     004D  082A               	movf	_data_buf+10,w
  3509     004E  0646               	xorwf	LED_output@crc8,w
  3510     004F  1903               	skipnz
  3511     0050  2852               	goto	u2431
  3512     0051  2853               	goto	u2430
  3513     0052                     u2431:
  3514     0052  2854               	goto	l2339
  3515     0053                     u2430:
  3516     0053  29C4               	goto	l350
  3517     0054                     l2339:
  3518                           
  3519                           ;main.c: 347:   if (data_buf[0] != 0xC8)
  3520     0054  30C8               	movlw	200
  3521     0055  0620               	xorwf	_data_buf,w
  3522     0056  1903               	btfsc	3,2
  3523     0057  2859               	goto	u2441
  3524     0058  285A               	goto	u2440
  3525     0059                     u2441:
  3526     0059  285B               	goto	l2343
  3527     005A                     u2440:
  3528     005A  29C4               	goto	l350
  3529     005B                     l2343:
  3530                           
  3531                           ;main.c: 349:   if (data_buf[1] != 0x8B)
  3532     005B  308B               	movlw	139
  3533     005C  0621               	xorwf	_data_buf+1,w
  3534     005D  1903               	btfsc	3,2
  3535     005E  2860               	goto	u2451
  3536     005F  2861               	goto	u2450
  3537     0060                     u2451:
  3538     0060  2862               	goto	l2347
  3539     0061                     u2450:
  3540     0061  29C4               	goto	l350
  3541     0062                     l2347:
  3542                           
  3543                           ;main.c: 352:   T10MS_CNT = 0;
  3544     0062  01BF               	clrf	_T10MS_CNT	;volatile
  3545     0063                     l2349:
  3546                           
  3547                           ;main.c: 355:   if (csFlag.POS == 1) {
  3548     0063  1EC0               	btfss	_csFlag,5
  3549     0064  2866               	goto	u2461
  3550     0065  2867               	goto	u2460
  3551     0066                     u2461:
  3552     0066  286A               	goto	l357
  3553     0067                     u2460:
  3554     0067                     l354:	
  3555                           ;main.c: 356:     do { LATAbits.LATA1 = 1; } while(0);
  3556                           
  3557     0067  0022               	movlb	2	; select bank2
  3558     0068  148C               	bsf	12,1	;volatile
  3559     0069  286C               	goto	l356
  3560     006A                     l357:	
  3561                           ;main.c: 358:     do { LATAbits.LATA1 = 0; } while(0);
  3562                           
  3563     006A  0022               	movlb	2	; select bank2
  3564     006B  108C               	bcf	12,1	;volatile
  3565     006C                     l356:	
  3566                           ;main.c: 359:   }
  3567                           
  3568                           
  3569                           ;main.c: 361: if (csFlag.HiBeam == 0 && csFlag.LoBeam == 0 && csFlag.DRL == 0 && csFlag.
      +                          POS == 0) {
  3570     006C  0020               	movlb	0	; select bank0
  3571     006D  1940               	btfsc	_csFlag,2
  3572     006E  2870               	goto	u2471
  3573     006F  2871               	goto	u2470
  3574     0070                     u2471:
  3575     0070  2883               	goto	l359
  3576     0071                     u2470:
  3577     0071                     l2351:
  3578     0071  19C0               	btfsc	_csFlag,3
  3579     0072  2874               	goto	u2481
  3580     0073  2875               	goto	u2480
  3581     0074                     u2481:
  3582     0074  2883               	goto	l359
  3583     0075                     u2480:
  3584     0075                     l2353:
  3585     0075  1A40               	btfsc	_csFlag,4
  3586     0076  2878               	goto	u2491
  3587     0077  2879               	goto	u2490
  3588     0078                     u2491:
  3589     0078  2883               	goto	l359
  3590     0079                     u2490:
  3591     0079                     l2355:
  3592     0079  1AC0               	btfsc	_csFlag,5
  3593     007A  287C               	goto	u2501
  3594     007B  287D               	goto	u2500
  3595     007C                     u2501:
  3596     007C  2883               	goto	l359
  3597     007D                     u2500:
  3598     007D                     l360:	
  3599                           ;main.c: 363:     do { LATAbits.LATA0 = 0; } while(0);
  3600                           
  3601     007D  0022               	movlb	2	; select bank2
  3602     007E  100C               	bcf	12,0	;volatile
  3603     007F                     l362:	
  3604                           ;main.c: 364:     do { LATBbits.LATB0 = 0; } while(0);
  3605                           
  3606     007F  100D               	bcf	13,0	;volatile
  3607     0080                     l2357:
  3608                           
  3609                           ;main.c: 365:     CCPR1L = 0;
  3610     0080  0025               	movlb	5	; select bank5
  3611     0081  0191               	clrf	17	;volatile
  3612                           
  3613                           ;main.c: 366:   } else if (csFlag.HiBeam == 0 && csFlag.LoBeam == 0 && csFlag.DRL == 0 &
      +                          & csFlag.POS == 1) {
  3614     0082  29B3               	goto	l2495
  3615     0083                     l359:
  3616     0083  1940               	btfsc	_csFlag,2
  3617     0084  2886               	goto	u2511
  3618     0085  2887               	goto	u2510
  3619     0086                     u2511:
  3620     0086  289A               	goto	l365
  3621     0087                     u2510:
  3622     0087                     l2359:
  3623     0087  19C0               	btfsc	_csFlag,3
  3624     0088  288A               	goto	u2521
  3625     0089  288B               	goto	u2520
  3626     008A                     u2521:
  3627     008A  289A               	goto	l365
  3628     008B                     u2520:
  3629     008B                     l2361:
  3630     008B  1A40               	btfsc	_csFlag,4
  3631     008C  288E               	goto	u2531
  3632     008D  288F               	goto	u2530
  3633     008E                     u2531:
  3634     008E  289A               	goto	l365
  3635     008F                     u2530:
  3636     008F                     l2363:
  3637     008F  1EC0               	btfss	_csFlag,5
  3638     0090  2892               	goto	u2541
  3639     0091  2893               	goto	u2540
  3640     0092                     u2541:
  3641     0092  289A               	goto	l365
  3642     0093                     u2540:
  3643     0093                     l366:	
  3644                           ;main.c: 368:     do { LATAbits.LATA0 = 0; } while(0);
  3645                           
  3646     0093  0022               	movlb	2	; select bank2
  3647     0094  100C               	bcf	12,0	;volatile
  3648     0095                     l368:	
  3649                           ;main.c: 369:     do { LATBbits.LATB0 = 0; } while(0);
  3650                           
  3651     0095  100D               	bcf	13,0	;volatile
  3652     0096                     l2365:
  3653                           
  3654                           ;main.c: 370:     POS_ON();
  3655     0096  3184  24F0  3180   	fcall	_POS_ON
  3656                           
  3657                           ;main.c: 371:   } else if (csFlag.HiBeam == 0 && csFlag.LoBeam == 0 && csFlag.DRL == 1 &
      +                          & csFlag.POS == 0) {
  3658     0099  29B3               	goto	l2495
  3659     009A                     l365:
  3660     009A  1940               	btfsc	_csFlag,2
  3661     009B  289D               	goto	u2551
  3662     009C  289E               	goto	u2550
  3663     009D                     u2551:
  3664     009D  28B1               	goto	l371
  3665     009E                     u2550:
  3666     009E                     l2367:
  3667     009E  19C0               	btfsc	_csFlag,3
  3668     009F  28A1               	goto	u2561
  3669     00A0  28A2               	goto	u2560
  3670     00A1                     u2561:
  3671     00A1  28B1               	goto	l371
  3672     00A2                     u2560:
  3673     00A2                     l2369:
  3674     00A2  1E40               	btfss	_csFlag,4
  3675     00A3  28A5               	goto	u2571
  3676     00A4  28A6               	goto	u2570
  3677     00A5                     u2571:
  3678     00A5  28B1               	goto	l371
  3679     00A6                     u2570:
  3680     00A6                     l2371:
  3681     00A6  1AC0               	btfsc	_csFlag,5
  3682     00A7  28A9               	goto	u2581
  3683     00A8  28AA               	goto	u2580
  3684     00A9                     u2581:
  3685     00A9  28B1               	goto	l371
  3686     00AA                     u2580:
  3687     00AA                     l372:	
  3688                           ;main.c: 373:     do { LATAbits.LATA0 = 0; } while(0);
  3689                           
  3690     00AA  0022               	movlb	2	; select bank2
  3691     00AB  100C               	bcf	12,0	;volatile
  3692     00AC                     l374:	
  3693                           ;main.c: 374:     do { LATBbits.LATB0 = 0; } while(0);
  3694                           
  3695     00AC  100D               	bcf	13,0	;volatile
  3696     00AD                     l2373:
  3697                           
  3698                           ;main.c: 375:     DRL_ON();
  3699     00AD  3183  2343  3180   	fcall	_DRL_ON
  3700                           
  3701                           ;main.c: 376:   } else if (csFlag.HiBeam == 0 && csFlag.LoBeam == 0 && csFlag.DRL == 1 &
      +                          & csFlag.POS == 1) {
  3702     00B0  29B3               	goto	l2495
  3703     00B1                     l371:
  3704     00B1  1940               	btfsc	_csFlag,2
  3705     00B2  28B4               	goto	u2591
  3706     00B3  28B5               	goto	u2590
  3707     00B4                     u2591:
  3708     00B4  28C5               	goto	l377
  3709     00B5                     u2590:
  3710     00B5                     l2375:
  3711     00B5  19C0               	btfsc	_csFlag,3
  3712     00B6  28B8               	goto	u2601
  3713     00B7  28B9               	goto	u2600
  3714     00B8                     u2601:
  3715     00B8  28C5               	goto	l377
  3716     00B9                     u2600:
  3717     00B9                     l2377:
  3718     00B9  1E40               	btfss	_csFlag,4
  3719     00BA  28BC               	goto	u2611
  3720     00BB  28BD               	goto	u2610
  3721     00BC                     u2611:
  3722     00BC  28C5               	goto	l377
  3723     00BD                     u2610:
  3724     00BD                     l2379:
  3725     00BD  1EC0               	btfss	_csFlag,5
  3726     00BE  28C0               	goto	u2621
  3727     00BF  28C1               	goto	u2620
  3728     00C0                     u2621:
  3729     00C0  28C5               	goto	l377
  3730     00C1                     u2620:
  3731     00C1                     l378:	
  3732                           ;main.c: 378:     do { LATAbits.LATA0 = 0; } while(0);
  3733                           
  3734     00C1  0022               	movlb	2	; select bank2
  3735     00C2  100C               	bcf	12,0	;volatile
  3736     00C3                     l380:	
  3737                           ;main.c: 379:     do { LATBbits.LATB0 = 0; } while(0);
  3738                           
  3739     00C3  100D               	bcf	13,0	;volatile
  3740     00C4  28AD               	goto	l2373
  3741     00C5                     l377:
  3742     00C5  1940               	btfsc	_csFlag,2
  3743     00C6  28C8               	goto	u2631
  3744     00C7  28C9               	goto	u2630
  3745     00C8                     u2631:
  3746     00C8  28DB               	goto	l383
  3747     00C9                     u2630:
  3748     00C9                     l2383:
  3749     00C9  1DC0               	btfss	_csFlag,3
  3750     00CA  28CC               	goto	u2641
  3751     00CB  28CD               	goto	u2640
  3752     00CC                     u2641:
  3753     00CC  28DB               	goto	l383
  3754     00CD                     u2640:
  3755     00CD                     l2385:
  3756     00CD  1A40               	btfsc	_csFlag,4
  3757     00CE  28D0               	goto	u2651
  3758     00CF  28D1               	goto	u2650
  3759     00D0                     u2651:
  3760     00D0  28DB               	goto	l383
  3761     00D1                     u2650:
  3762     00D1                     l2387:
  3763     00D1  1AC0               	btfsc	_csFlag,5
  3764     00D2  28D4               	goto	u2661
  3765     00D3  28D5               	goto	u2660
  3766     00D4                     u2661:
  3767     00D4  28DB               	goto	l383
  3768     00D5                     u2660:
  3769     00D5                     l384:	
  3770                           ;main.c: 383:     do { LATAbits.LATA0 = 0; } while(0);
  3771                           
  3772     00D5  0022               	movlb	2	; select bank2
  3773     00D6  100C               	bcf	12,0	;volatile
  3774     00D7                     l2389:
  3775                           
  3776                           ;main.c: 384:     LoBeam_ON();
  3777     00D7  3184  24EA  3180   	fcall	_LoBeam_ON
  3778     00DA  2880               	goto	l2357
  3779     00DB                     l383:
  3780     00DB  1940               	btfsc	_csFlag,2
  3781     00DC  28DE               	goto	u2671
  3782     00DD  28DF               	goto	u2670
  3783     00DE                     u2671:
  3784     00DE  28F1               	goto	l387
  3785     00DF                     u2670:
  3786     00DF                     l2393:
  3787     00DF  1DC0               	btfss	_csFlag,3
  3788     00E0  28E2               	goto	u2681
  3789     00E1  28E3               	goto	u2680
  3790     00E2                     u2681:
  3791     00E2  28F1               	goto	l387
  3792     00E3                     u2680:
  3793     00E3                     l2395:
  3794     00E3  1A40               	btfsc	_csFlag,4
  3795     00E4  28E6               	goto	u2691
  3796     00E5  28E7               	goto	u2690
  3797     00E6                     u2691:
  3798     00E6  28F1               	goto	l387
  3799     00E7                     u2690:
  3800     00E7                     l2397:
  3801     00E7  1EC0               	btfss	_csFlag,5
  3802     00E8  28EA               	goto	u2701
  3803     00E9  28EB               	goto	u2700
  3804     00EA                     u2701:
  3805     00EA  28F1               	goto	l387
  3806     00EB                     u2700:
  3807     00EB                     l388:	
  3808                           ;main.c: 388:     do { LATAbits.LATA0 = 0; } while(0);
  3809                           
  3810     00EB  0022               	movlb	2	; select bank2
  3811     00EC  100C               	bcf	12,0	;volatile
  3812     00ED                     l2399:
  3813                           
  3814                           ;main.c: 389:     LoBeam_ON();
  3815     00ED  3184  24EA  3180   	fcall	_LoBeam_ON
  3816     00F0  2896               	goto	l2365
  3817     00F1                     l387:
  3818     00F1  1940               	btfsc	_csFlag,2
  3819     00F2  28F4               	goto	u2711
  3820     00F3  28F5               	goto	u2710
  3821     00F4                     u2711:
  3822     00F4  2904               	goto	l391
  3823     00F5                     u2710:
  3824     00F5                     l2403:
  3825     00F5  1DC0               	btfss	_csFlag,3
  3826     00F6  28F8               	goto	u2721
  3827     00F7  28F9               	goto	u2720
  3828     00F8                     u2721:
  3829     00F8  2904               	goto	l391
  3830     00F9                     u2720:
  3831     00F9                     l2405:
  3832     00F9  1E40               	btfss	_csFlag,4
  3833     00FA  28FC               	goto	u2731
  3834     00FB  28FD               	goto	u2730
  3835     00FC                     u2731:
  3836     00FC  2904               	goto	l391
  3837     00FD                     u2730:
  3838     00FD                     l2407:
  3839     00FD  1AC0               	btfsc	_csFlag,5
  3840     00FE  2900               	goto	u2741
  3841     00FF  2901               	goto	u2740
  3842     0100                     u2741:
  3843     0100  2904               	goto	l391
  3844     0101                     u2740:
  3845     0101                     l392:	
  3846                           ;main.c: 393:     do { LATAbits.LATA0 = 0; } while(0);
  3847                           
  3848     0101  0022               	movlb	2	; select bank2
  3849     0102  100C               	bcf	12,0	;volatile
  3850     0103  28D7               	goto	l2389
  3851     0104                     l391:
  3852     0104  1940               	btfsc	_csFlag,2
  3853     0105  2907               	goto	u2751
  3854     0106  2908               	goto	u2750
  3855     0107                     u2751:
  3856     0107  2917               	goto	l395
  3857     0108                     u2750:
  3858     0108                     l2413:
  3859     0108  1DC0               	btfss	_csFlag,3
  3860     0109  290B               	goto	u2761
  3861     010A  290C               	goto	u2760
  3862     010B                     u2761:
  3863     010B  2917               	goto	l395
  3864     010C                     u2760:
  3865     010C                     l2415:
  3866     010C  1E40               	btfss	_csFlag,4
  3867     010D  290F               	goto	u2771
  3868     010E  2910               	goto	u2770
  3869     010F                     u2771:
  3870     010F  2917               	goto	l395
  3871     0110                     u2770:
  3872     0110                     l2417:
  3873     0110  1EC0               	btfss	_csFlag,5
  3874     0111  2913               	goto	u2781
  3875     0112  2914               	goto	u2780
  3876     0113                     u2781:
  3877     0113  2917               	goto	l395
  3878     0114                     u2780:
  3879     0114                     l396:	
  3880                           ;main.c: 398:     do { LATAbits.LATA0 = 0; } while(0);
  3881                           
  3882     0114  0022               	movlb	2	; select bank2
  3883     0115  100C               	bcf	12,0	;volatile
  3884     0116  28ED               	goto	l2399
  3885     0117                     l395:
  3886     0117  1D40               	btfss	_csFlag,2
  3887     0118  291A               	goto	u2791
  3888     0119  291B               	goto	u2790
  3889     011A                     u2791:
  3890     011A  292B               	goto	l399
  3891     011B                     u2790:
  3892     011B                     l2423:
  3893     011B  19C0               	btfsc	_csFlag,3
  3894     011C  291E               	goto	u2801
  3895     011D  291F               	goto	u2800
  3896     011E                     u2801:
  3897     011E  292B               	goto	l399
  3898     011F                     u2800:
  3899     011F                     l2425:
  3900     011F  1A40               	btfsc	_csFlag,4
  3901     0120  2922               	goto	u2811
  3902     0121  2923               	goto	u2810
  3903     0122                     u2811:
  3904     0122  292B               	goto	l399
  3905     0123                     u2810:
  3906     0123                     l2427:
  3907     0123  1AC0               	btfsc	_csFlag,5
  3908     0124  2926               	goto	u2821
  3909     0125  2927               	goto	u2820
  3910     0126                     u2821:
  3911     0126  292B               	goto	l399
  3912     0127                     u2820:
  3913     0127                     l400:	
  3914                           ;main.c: 403:     do { LATAbits.LATA0 = 1; } while(0);
  3915                           
  3916     0127  0022               	movlb	2	; select bank2
  3917     0128  140C               	bsf	12,0	;volatile
  3918     0129                     l402:	
  3919                           ;main.c: 404:     do { LATBbits.LATB0 = 0; } while(0);
  3920                           
  3921     0129  100D               	bcf	13,0	;volatile
  3922     012A  2880               	goto	l2357
  3923     012B                     l399:
  3924     012B  1D40               	btfss	_csFlag,2
  3925     012C  292E               	goto	u2831
  3926     012D  292F               	goto	u2830
  3927     012E                     u2831:
  3928     012E  293F               	goto	l405
  3929     012F                     u2830:
  3930     012F                     l2431:
  3931     012F  19C0               	btfsc	_csFlag,3
  3932     0130  2932               	goto	u2841
  3933     0131  2933               	goto	u2840
  3934     0132                     u2841:
  3935     0132  293F               	goto	l405
  3936     0133                     u2840:
  3937     0133                     l2433:
  3938     0133  1A40               	btfsc	_csFlag,4
  3939     0134  2936               	goto	u2851
  3940     0135  2937               	goto	u2850
  3941     0136                     u2851:
  3942     0136  293F               	goto	l405
  3943     0137                     u2850:
  3944     0137                     l2435:
  3945     0137  1EC0               	btfss	_csFlag,5
  3946     0138  293A               	goto	u2861
  3947     0139  293B               	goto	u2860
  3948     013A                     u2861:
  3949     013A  293F               	goto	l405
  3950     013B                     u2860:
  3951     013B                     l406:	
  3952                           ;main.c: 408:     do { LATAbits.LATA0 = 0; } while(0);
  3953                           
  3954     013B  0022               	movlb	2	; select bank2
  3955     013C  100C               	bcf	12,0	;volatile
  3956     013D                     l408:	
  3957                           ;main.c: 409:     do { LATBbits.LATB0 = 0; } while(0);
  3958                           
  3959     013D  100D               	bcf	13,0	;volatile
  3960     013E  2896               	goto	l2365
  3961     013F                     l405:
  3962     013F  1D40               	btfss	_csFlag,2
  3963     0140  2942               	goto	u2871
  3964     0141  2943               	goto	u2870
  3965     0142                     u2871:
  3966     0142  2953               	goto	l411
  3967     0143                     u2870:
  3968     0143                     l2439:
  3969     0143  19C0               	btfsc	_csFlag,3
  3970     0144  2946               	goto	u2881
  3971     0145  2947               	goto	u2880
  3972     0146                     u2881:
  3973     0146  2953               	goto	l411
  3974     0147                     u2880:
  3975     0147                     l2441:
  3976     0147  1E40               	btfss	_csFlag,4
  3977     0148  294A               	goto	u2891
  3978     0149  294B               	goto	u2890
  3979     014A                     u2891:
  3980     014A  2953               	goto	l411
  3981     014B                     u2890:
  3982     014B                     l2443:
  3983     014B  1AC0               	btfsc	_csFlag,5
  3984     014C  294E               	goto	u2901
  3985     014D  294F               	goto	u2900
  3986     014E                     u2901:
  3987     014E  2953               	goto	l411
  3988     014F                     u2900:
  3989     014F                     l412:	
  3990                           ;main.c: 413:     do { LATAbits.LATA0 = 0; } while(0);
  3991                           
  3992     014F  0022               	movlb	2	; select bank2
  3993     0150  100C               	bcf	12,0	;volatile
  3994     0151                     l414:	
  3995                           ;main.c: 414:     do { LATBbits.LATB0 = 0; } while(0);
  3996                           
  3997     0151  100D               	bcf	13,0	;volatile
  3998     0152  28AD               	goto	l2373
  3999     0153                     l411:
  4000     0153  1D40               	btfss	_csFlag,2
  4001     0154  2956               	goto	u2911
  4002     0155  2957               	goto	u2910
  4003     0156                     u2911:
  4004     0156  2967               	goto	l417
  4005     0157                     u2910:
  4006     0157                     l2447:
  4007     0157  19C0               	btfsc	_csFlag,3
  4008     0158  295A               	goto	u2921
  4009     0159  295B               	goto	u2920
  4010     015A                     u2921:
  4011     015A  2967               	goto	l417
  4012     015B                     u2920:
  4013     015B                     l2449:
  4014     015B  1E40               	btfss	_csFlag,4
  4015     015C  295E               	goto	u2931
  4016     015D  295F               	goto	u2930
  4017     015E                     u2931:
  4018     015E  2967               	goto	l417
  4019     015F                     u2930:
  4020     015F                     l2451:
  4021     015F  1EC0               	btfss	_csFlag,5
  4022     0160  2962               	goto	u2941
  4023     0161  2963               	goto	u2940
  4024     0162                     u2941:
  4025     0162  2967               	goto	l417
  4026     0163                     u2940:
  4027     0163                     l418:	
  4028                           ;main.c: 418:     do { LATAbits.LATA0 = 0; } while(0);
  4029                           
  4030     0163  0022               	movlb	2	; select bank2
  4031     0164  100C               	bcf	12,0	;volatile
  4032     0165                     l420:	
  4033                           ;main.c: 419:     do { LATBbits.LATB0 = 0; } while(0);
  4034                           
  4035     0165  100D               	bcf	13,0	;volatile
  4036     0166  28AD               	goto	l2373
  4037     0167                     l417:
  4038     0167  1D40               	btfss	_csFlag,2
  4039     0168  296A               	goto	u2951
  4040     0169  296B               	goto	u2950
  4041     016A                     u2951:
  4042     016A  297A               	goto	l423
  4043     016B                     u2950:
  4044     016B                     l2455:
  4045     016B  1DC0               	btfss	_csFlag,3
  4046     016C  296E               	goto	u2961
  4047     016D  296F               	goto	u2960
  4048     016E                     u2961:
  4049     016E  297A               	goto	l423
  4050     016F                     u2960:
  4051     016F                     l2457:
  4052     016F  1A40               	btfsc	_csFlag,4
  4053     0170  2972               	goto	u2971
  4054     0171  2973               	goto	u2970
  4055     0172                     u2971:
  4056     0172  297A               	goto	l423
  4057     0173                     u2970:
  4058     0173                     l2459:
  4059     0173  1AC0               	btfsc	_csFlag,5
  4060     0174  2976               	goto	u2981
  4061     0175  2977               	goto	u2980
  4062     0176                     u2981:
  4063     0176  297A               	goto	l423
  4064     0177                     u2980:
  4065     0177                     l424:	
  4066                           ;main.c: 423:     do { LATAbits.LATA0 = 1; } while(0);
  4067                           
  4068     0177  0022               	movlb	2	; select bank2
  4069     0178  140C               	bsf	12,0	;volatile
  4070     0179  28D7               	goto	l2389
  4071     017A                     l423:
  4072     017A  1D40               	btfss	_csFlag,2
  4073     017B  297D               	goto	u2991
  4074     017C  297E               	goto	u2990
  4075     017D                     u2991:
  4076     017D  298D               	goto	l427
  4077     017E                     u2990:
  4078     017E                     l2465:
  4079     017E  1DC0               	btfss	_csFlag,3
  4080     017F  2981               	goto	u3001
  4081     0180  2982               	goto	u3000
  4082     0181                     u3001:
  4083     0181  298D               	goto	l427
  4084     0182                     u3000:
  4085     0182                     l2467:
  4086     0182  1A40               	btfsc	_csFlag,4
  4087     0183  2985               	goto	u3011
  4088     0184  2986               	goto	u3010
  4089     0185                     u3011:
  4090     0185  298D               	goto	l427
  4091     0186                     u3010:
  4092     0186                     l2469:
  4093     0186  1EC0               	btfss	_csFlag,5
  4094     0187  2989               	goto	u3021
  4095     0188  298A               	goto	u3020
  4096     0189                     u3021:
  4097     0189  298D               	goto	l427
  4098     018A                     u3020:
  4099     018A                     l428:	
  4100                           ;main.c: 428:     do { LATAbits.LATA0 = 1; } while(0);
  4101                           
  4102     018A  0022               	movlb	2	; select bank2
  4103     018B  140C               	bsf	12,0	;volatile
  4104     018C  28ED               	goto	l2399
  4105     018D                     l427:
  4106     018D  1D40               	btfss	_csFlag,2
  4107     018E  2990               	goto	u3031
  4108     018F  2991               	goto	u3030
  4109     0190                     u3031:
  4110     0190  29A0               	goto	l431
  4111     0191                     u3030:
  4112     0191                     l2475:
  4113     0191  1DC0               	btfss	_csFlag,3
  4114     0192  2994               	goto	u3041
  4115     0193  2995               	goto	u3040
  4116     0194                     u3041:
  4117     0194  29A0               	goto	l431
  4118     0195                     u3040:
  4119     0195                     l2477:
  4120     0195  1E40               	btfss	_csFlag,4
  4121     0196  2998               	goto	u3051
  4122     0197  2999               	goto	u3050
  4123     0198                     u3051:
  4124     0198  29A0               	goto	l431
  4125     0199                     u3050:
  4126     0199                     l2479:
  4127     0199  1AC0               	btfsc	_csFlag,5
  4128     019A  299C               	goto	u3061
  4129     019B  299D               	goto	u3060
  4130     019C                     u3061:
  4131     019C  29A0               	goto	l431
  4132     019D                     u3060:
  4133     019D                     l432:	
  4134                           ;main.c: 433:     do { LATAbits.LATA0 = 1; } while(0);
  4135                           
  4136     019D  0022               	movlb	2	; select bank2
  4137     019E  140C               	bsf	12,0	;volatile
  4138     019F  28D7               	goto	l2389
  4139     01A0                     l431:
  4140     01A0  1D40               	btfss	_csFlag,2
  4141     01A1  29A3               	goto	u3071
  4142     01A2  29A4               	goto	u3070
  4143     01A3                     u3071:
  4144     01A3  29B3               	goto	l426
  4145     01A4                     u3070:
  4146     01A4                     l2485:
  4147     01A4  1DC0               	btfss	_csFlag,3
  4148     01A5  29A7               	goto	u3081
  4149     01A6  29A8               	goto	u3080
  4150     01A7                     u3081:
  4151     01A7  29B3               	goto	l426
  4152     01A8                     u3080:
  4153     01A8                     l2487:
  4154     01A8  1E40               	btfss	_csFlag,4
  4155     01A9  29AB               	goto	u3091
  4156     01AA  29AC               	goto	u3090
  4157     01AB                     u3091:
  4158     01AB  29B3               	goto	l426
  4159     01AC                     u3090:
  4160     01AC                     l2489:
  4161     01AC  1EC0               	btfss	_csFlag,5
  4162     01AD  29AF               	goto	u3101
  4163     01AE  29B0               	goto	u3100
  4164     01AF                     u3101:
  4165     01AF  29B3               	goto	l426
  4166     01B0                     u3100:
  4167     01B0                     l436:	
  4168                           ;main.c: 438:     do { LATAbits.LATA0 = 1; } while(0);
  4169                           
  4170     01B0  0022               	movlb	2	; select bank2
  4171     01B1  140C               	bsf	12,0	;volatile
  4172     01B2  28ED               	goto	l2399
  4173     01B3                     l426:
  4174     01B3                     l2495:
  4175                           
  4176                           ;main.c: 541:   for (uint8_t i = 0; i < 11; i++) {
  4177     01B3  0020               	movlb	0	; select bank0
  4178     01B4  01C7               	clrf	LED_output@i
  4179     01B5                     l2501:
  4180                           
  4181                           ;main.c: 542:     data_buf[i] = 0;
  4182     01B5  0847               	movf	LED_output@i,w
  4183     01B6  3E20               	addlw	(low (_data_buf| 0))& (0+255)
  4184     01B7  0086               	movwf	6
  4185     01B8  0187               	clrf	7
  4186     01B9  0181               	clrf	1
  4187     01BA                     l2503:
  4188                           
  4189                           ;main.c: 543:   }
  4190     01BA  3001               	movlw	1
  4191     01BB  00C5               	movwf	??_LED_output
  4192     01BC  0845               	movf	??_LED_output,w
  4193     01BD  07C7               	addwf	LED_output@i,f
  4194     01BE                     l2505:
  4195     01BE  300B               	movlw	11
  4196     01BF  0247               	subwf	LED_output@i,w
  4197     01C0  1C03               	skipc
  4198     01C1  29C3               	goto	u3111
  4199     01C2  29C4               	goto	u3110
  4200     01C3                     u3111:
  4201     01C3  29B5               	goto	l2501
  4202     01C4                     u3110:
  4203     01C4                     l350:
  4204     01C4  0008               	return
  4205     01C5                     __end_of_LED_output:
  4206                           
  4207                           	psect	text14
  4208     04EA                     __ptext14:	
  4209 ;; *************** function _LoBeam_ON *****************
  4210 ;; Defined at:
  4211 ;;		line 170 in file "main.c"
  4212 ;; Parameters:    Size  Location     Type
  4213 ;;		None
  4214 ;; Auto vars:     Size  Location     Type
  4215 ;;		None
  4216 ;; Return value:  Size  Location     Type
  4217 ;;                  1    wreg      void 
  4218 ;; Registers used:
  4219 ;;		None
  4220 ;; Tracked objects:
  4221 ;;		On entry : 0/0
  4222 ;;		On exit  : 0/0
  4223 ;;		Unchanged: 0/0
  4224 ;; Data sizes:     COMMON   BANK0   BANK1   BANK2   BANK3   BANK4   BANK5   BANK6
  4225 ;;      Params:         0       0       0       0       0       0       0       0
  4226 ;;      Locals:         0       0       0       0       0       0       0       0
  4227 ;;      Temps:          0       0       0       0       0       0       0       0
  4228 ;;      Totals:         0       0       0       0       0       0       0       0
  4229 ;;Total ram usage:        0 bytes
  4230 ;; Hardware stack levels used: 1
  4231 ;; Hardware stack levels required when called: 4
  4232 ;; This function calls:
  4233 ;;		Nothing
  4234 ;; This function is called by:
  4235 ;;		_LED_output
  4236 ;;		_main
  4237 ;; This function uses a non-reentrant model
  4238 ;;
  4239                           
  4240     04EA                     _LoBeam_ON:	
  4241                           ;psect for function _LoBeam_ON
  4242                           
  4243     04EA                     l301:	
  4244                           ;incstack = 0
  4245                           ; Regs used in _LoBeam_ON: []
  4246                           ;main.c: 171:   do { LATBbits.LATB0 = 1; } while(0);
  4247                           
  4248     04EA  0022               	movlb	2	; select bank2
  4249     04EB  140D               	bsf	13,0	;volatile
  4250     04EC                     l302:
  4251                           
  4252                           ;main.c: 172:   __nop();
  4253     04EC  0000               	nop
  4254                           
  4255                           ;main.c: 173:   __nop();
  4256     04ED  0000               	nop
  4257                           
  4258                           ;main.c: 174:   __nop();
  4259     04EE  0000               	nop
  4260     04EF                     l303:
  4261     04EF  0008               	return
  4262     04F0                     __end_of_LoBeam_ON:
  4263                           
  4264                           	psect	text15
  4265     0343                     __ptext15:	
  4266 ;; *************** function _DRL_ON *****************
  4267 ;; Defined at:
  4268 ;;		line 290 in file "main.c"
  4269 ;; Parameters:    Size  Location     Type
  4270 ;;		None
  4271 ;; Auto vars:     Size  Location     Type
  4272 ;;		None
  4273 ;; Return value:  Size  Location     Type
  4274 ;;                  1    wreg      void 
  4275 ;; Registers used:
  4276 ;;		wreg, status,2, status,0
  4277 ;; Tracked objects:
  4278 ;;		On entry : 0/0
  4279 ;;		On exit  : 0/0
  4280 ;;		Unchanged: 0/0
  4281 ;; Data sizes:     COMMON   BANK0   BANK1   BANK2   BANK3   BANK4   BANK5   BANK6
  4282 ;;      Params:         0       0       0       0       0       0       0       0
  4283 ;;      Locals:         0       0       0       0       0       0       0       0
  4284 ;;      Temps:          0       0       0       0       0       0       0       0
  4285 ;;      Totals:         0       0       0       0       0       0       0       0
  4286 ;;Total ram usage:        0 bytes
  4287 ;; Hardware stack levels used: 1
  4288 ;; Hardware stack levels required when called: 4
  4289 ;; This function calls:
  4290 ;;		Nothing
  4291 ;; This function is called by:
  4292 ;;		_LED_output
  4293 ;; This function uses a non-reentrant model
  4294 ;;
  4295                           
  4296     0343                     _DRL_ON:	
  4297                           ;psect for function _DRL_ON
  4298                           
  4299     0343                     l2297:	
  4300                           ;incstack = 0
  4301                           ; Regs used in _DRL_ON: [wreg+status,2+status,0]
  4302                           
  4303                           
  4304                           ;main.c: 291: if(fLampSide==0){
  4305     0343  0020               	movlb	0	; select bank0
  4306     0344  083C               	movf	_fLampSide,w
  4307     0345  1D03               	btfss	3,2
  4308     0346  2B48               	goto	u2321
  4309     0347  2B49               	goto	u2320
  4310     0348                     u2321:
  4311     0348  2B6A               	goto	l319
  4312     0349                     u2320:
  4313     0349                     l2299:
  4314                           
  4315                           ;main.c: 293:   if (csFlag.turnLight_R == 1 && csFlag.POS == 0){
  4316     0349  1C40               	btfss	_csFlag,0
  4317     034A  2B4C               	goto	u2331
  4318     034B  2B4D               	goto	u2330
  4319     034C                     u2331:
  4320     034C  2B56               	goto	l320
  4321     034D                     u2330:
  4322     034D                     l2301:
  4323     034D  1AC0               	btfsc	_csFlag,5
  4324     034E  2B50               	goto	u2341
  4325     034F  2B51               	goto	u2340
  4326     0350                     u2341:
  4327     0350  2B56               	goto	l320
  4328     0351                     u2340:
  4329     0351                     l321:	
  4330                           ;main.c: 294:     do { LATAbits.LATA6 = 0; } while(0);
  4331                           
  4332     0351  0022               	movlb	2	; select bank2
  4333     0352  130C               	bcf	12,6	;volatile
  4334     0353                     l2303:
  4335                           
  4336                           ;main.c: 295:     CCPR1L = 0;
  4337     0353  0025               	movlb	5	; select bank5
  4338     0354  0191               	clrf	17	;volatile
  4339                           
  4340                           ;main.c: 296:   } else if(csFlag.turnLight_R == 1 && csFlag.POS == 1){
  4341     0355  2B83               	goto	l341
  4342     0356                     l320:
  4343     0356  1C40               	btfss	_csFlag,0
  4344     0357  2B59               	goto	u2351
  4345     0358  2B5A               	goto	u2350
  4346     0359                     u2351:
  4347     0359  2B64               	goto	l328
  4348     035A                     u2350:
  4349     035A                     l2305:
  4350     035A  1EC0               	btfss	_csFlag,5
  4351     035B  2B5D               	goto	u2361
  4352     035C  2B5E               	goto	u2360
  4353     035D                     u2361:
  4354     035D  2B64               	goto	l328
  4355     035E                     u2360:
  4356     035E                     l325:	
  4357                           ;main.c: 297:     do { LATAbits.LATA6 = 1; } while(0);
  4358                           
  4359     035E  0022               	movlb	2	; select bank2
  4360     035F  170C               	bsf	12,6	;volatile
  4361     0360                     l2307:
  4362                           
  4363                           ;main.c: 298:     CCPR1L = 47;
  4364     0360  302F               	movlw	47
  4365     0361  0025               	movlb	5	; select bank5
  4366     0362  0091               	movwf	17	;volatile
  4367                           
  4368                           ;main.c: 299:   }else{
  4369     0363  2B83               	goto	l341
  4370     0364                     l328:	
  4371                           ;main.c: 301:     do { LATAbits.LATA6 = 0; } while(0);
  4372                           
  4373     0364  0022               	movlb	2	; select bank2
  4374     0365  130C               	bcf	12,6	;volatile
  4375     0366                     l2309:
  4376                           
  4377                           ;main.c: 302:     CCPR1L = 201;
  4378     0366  30C9               	movlw	201
  4379     0367  0025               	movlb	5	; select bank5
  4380     0368  0091               	movwf	17	;volatile
  4381     0369  2B83               	goto	l341
  4382     036A                     l319:
  4383                           
  4384                           ;main.c: 306:   if (csFlag.turnLight_L == 1 && csFlag.POS == 0){
  4385     036A  1CC0               	btfss	_csFlag,1
  4386     036B  2B6D               	goto	u2371
  4387     036C  2B6E               	goto	u2370
  4388     036D                     u2371:
  4389     036D  2B75               	goto	l331
  4390     036E                     u2370:
  4391     036E                     l2311:
  4392     036E  1AC0               	btfsc	_csFlag,5
  4393     036F  2B71               	goto	u2381
  4394     0370  2B72               	goto	u2380
  4395     0371                     u2381:
  4396     0371  2B75               	goto	l331
  4397     0372                     u2380:
  4398     0372                     l332:	
  4399                           ;main.c: 307:     do { LATAbits.LATA6 = 0; } while(0);
  4400                           
  4401     0372  0022               	movlb	2	; select bank2
  4402     0373  130C               	bcf	12,6	;volatile
  4403     0374  2B53               	goto	l2303
  4404     0375                     l331:
  4405     0375  1CC0               	btfss	_csFlag,1
  4406     0376  2B78               	goto	u2391
  4407     0377  2B79               	goto	u2390
  4408     0378                     u2391:
  4409     0378  2B80               	goto	l339
  4410     0379                     u2390:
  4411     0379                     l2315:
  4412     0379  1EC0               	btfss	_csFlag,5
  4413     037A  2B7C               	goto	u2401
  4414     037B  2B7D               	goto	u2400
  4415     037C                     u2401:
  4416     037C  2B80               	goto	l339
  4417     037D                     u2400:
  4418     037D                     l336:	
  4419                           ;main.c: 310:     do { LATAbits.LATA6 = 1; } while(0);
  4420                           
  4421     037D  0022               	movlb	2	; select bank2
  4422     037E  170C               	bsf	12,6	;volatile
  4423     037F  2B60               	goto	l2307
  4424     0380                     l339:	
  4425                           ;main.c: 314:     do { LATAbits.LATA6 = 0; } while(0);
  4426                           
  4427     0380  0022               	movlb	2	; select bank2
  4428     0381  130C               	bcf	12,6	;volatile
  4429     0382  2B66               	goto	l2309
  4430     0383                     l341:
  4431     0383  0008               	return
  4432     0384                     __end_of_DRL_ON:
  4433                           
  4434                           	psect	text16
  4435     0413                     __ptext16:	
  4436 ;; *************** function _Exception_handling *****************
  4437 ;; Defined at:
  4438 ;;		line 276 in file "main.c"
  4439 ;; Parameters:    Size  Location     Type
  4440 ;;		None
  4441 ;; Auto vars:     Size  Location     Type
  4442 ;;		None
  4443 ;; Return value:  Size  Location     Type
  4444 ;;                  1    wreg      void 
  4445 ;; Registers used:
  4446 ;;		wreg, status,2, status,0, pclath, cstack
  4447 ;; Tracked objects:
  4448 ;;		On entry : 0/0
  4449 ;;		On exit  : 0/0
  4450 ;;		Unchanged: 0/0
  4451 ;; Data sizes:     COMMON   BANK0   BANK1   BANK2   BANK3   BANK4   BANK5   BANK6
  4452 ;;      Params:         0       0       0       0       0       0       0       0
  4453 ;;      Locals:         0       0       0       0       0       0       0       0
  4454 ;;      Temps:          0       0       0       0       0       0       0       0
  4455 ;;      Totals:         0       0       0       0       0       0       0       0
  4456 ;;Total ram usage:        0 bytes
  4457 ;; Hardware stack levels used: 1
  4458 ;; Hardware stack levels required when called: 5
  4459 ;; This function calls:
  4460 ;;		_POS_ON
  4461 ;; This function is called by:
  4462 ;;		_main
  4463 ;; This function uses a non-reentrant model
  4464 ;;
  4465                           
  4466     0413                     _Exception_handling:	
  4467                           ;psect for function _Exception_handling
  4468                           
  4469     0413                     l2323:	
  4470                           ;incstack = 0
  4471                           ; Regs used in _Exception_handling: [wreg+status,2+status,0+pclath+cstack]
  4472                           
  4473                           
  4474                           ;main.c: 277:   if ((data_buf[2] == 6) && (data_buf[10] == 0xD5)) {
  4475     0413  3006               	movlw	6
  4476     0414  0020               	movlb	0	; select bank0
  4477     0415  0622               	xorwf	_data_buf+2,w
  4478     0416  1D03               	btfss	3,2
  4479     0417  2C19               	goto	u2411
  4480     0418  2C1A               	goto	u2410
  4481     0419                     u2411:
  4482     0419  2C2E               	goto	l2331
  4483     041A                     u2410:
  4484     041A                     l2325:
  4485     041A  30D5               	movlw	213
  4486     041B  062A               	xorwf	_data_buf+10,w
  4487     041C  1D03               	btfss	3,2
  4488     041D  2C1F               	goto	u2421
  4489     041E  2C20               	goto	u2420
  4490     041F                     u2421:
  4491     041F  2C2E               	goto	l2331
  4492     0420                     u2420:
  4493     0420                     l309:	
  4494                           ;main.c: 278:     do { LATAbits.LATA1 = 1; } while(0);
  4495                           
  4496     0420  0022               	movlb	2	; select bank2
  4497     0421  148C               	bsf	12,1	;volatile
  4498     0422                     l310:
  4499                           
  4500                           ;main.c: 279:     fException = 1;
  4501     0422  0020               	movlb	0	; select bank0
  4502     0423  01BE               	clrf	_fException
  4503     0424  0ABE               	incf	_fException,f
  4504     0425                     l311:	
  4505                           ;main.c: 281:     do { LATBbits.LATB0 = 0; } while(0);
  4506                           
  4507     0425  0022               	movlb	2	; select bank2
  4508     0426  100D               	bcf	13,0	;volatile
  4509     0427                     l313:	
  4510                           ;main.c: 282:     do { LATAbits.LATA0 = 0; } while(0);
  4511                           
  4512     0427  100C               	bcf	12,0	;volatile
  4513     0428                     l2327:
  4514                           
  4515                           ;main.c: 283:     POS_ON();
  4516     0428  3184  24F0  3184   	fcall	_POS_ON
  4517     042B                     l2329:
  4518                           
  4519                           ;main.c: 284:     T10MS_CNT = 0;
  4520     042B  0020               	movlb	0	; select bank0
  4521     042C  01BF               	clrf	_T10MS_CNT	;volatile
  4522                           
  4523                           ;main.c: 285:   } else {
  4524     042D  2C2F               	goto	l316
  4525     042E                     l2331:
  4526                           
  4527                           ;main.c: 286:     fException = 0;
  4528     042E  01BE               	clrf	_fException
  4529     042F                     l316:
  4530     042F  0008               	return
  4531     0430                     __end_of_Exception_handling:
  4532                           
  4533                           	psect	text17
  4534     04F0                     __ptext17:	
  4535 ;; *************** function _POS_ON *****************
  4536 ;; Defined at:
  4537 ;;		line 337 in file "main.c"
  4538 ;; Parameters:    Size  Location     Type
  4539 ;;		None
  4540 ;; Auto vars:     Size  Location     Type
  4541 ;;		None
  4542 ;; Return value:  Size  Location     Type
  4543 ;;                  1    wreg      void 
  4544 ;; Registers used:
  4545 ;;		wreg
  4546 ;; Tracked objects:
  4547 ;;		On entry : 0/0
  4548 ;;		On exit  : 0/0
  4549 ;;		Unchanged: 0/0
  4550 ;; Data sizes:     COMMON   BANK0   BANK1   BANK2   BANK3   BANK4   BANK5   BANK6
  4551 ;;      Params:         0       0       0       0       0       0       0       0
  4552 ;;      Locals:         0       0       0       0       0       0       0       0
  4553 ;;      Temps:          0       0       0       0       0       0       0       0
  4554 ;;      Totals:         0       0       0       0       0       0       0       0
  4555 ;;Total ram usage:        0 bytes
  4556 ;; Hardware stack levels used: 1
  4557 ;; Hardware stack levels required when called: 4
  4558 ;; This function calls:
  4559 ;;		Nothing
  4560 ;; This function is called by:
  4561 ;;		_Exception_handling
  4562 ;;		_LED_output
  4563 ;;		_main
  4564 ;; This function uses a non-reentrant model
  4565 ;;
  4566                           
  4567     04F0                     _POS_ON:	
  4568                           ;psect for function _POS_ON
  4569                           
  4570     04F0                     l344:	
  4571                           ;incstack = 0
  4572                           ; Regs used in _POS_ON: [wreg]
  4573                           ;main.c: 338:   do { LATAbits.LATA6 = 1; } while(0);
  4574                           
  4575     04F0  0022               	movlb	2	; select bank2
  4576     04F1  170C               	bsf	12,6	;volatile
  4577     04F2                     l2295:
  4578                           
  4579                           ;main.c: 339:   CCPR1L = 47;
  4580     04F2  302F               	movlw	47
  4581     04F3  0025               	movlb	5	; select bank5
  4582     04F4  0091               	movwf	17	;volatile
  4583     04F5                     l346:
  4584     04F5  0008               	return
  4585     04F6                     __end_of_POS_ON:
  4586                           
  4587                           	psect	intentry
  4588     0004                     __pintentry:	
  4589 ;; *************** function _INTERRUPT_InterruptManager *****************
  4590 ;; Defined at:
  4591 ;;		line 52 in file "mcc_generated_files/interrupt_manager.c"
  4592 ;; Parameters:    Size  Location     Type
  4593 ;;		None
  4594 ;; Auto vars:     Size  Location     Type
  4595 ;;		None
  4596 ;; Return value:  Size  Location     Type
  4597 ;;                  1    wreg      void 
  4598 ;; Registers used:
  4599 ;;		wreg, status,2, status,0, pclath, cstack
  4600 ;; Tracked objects:
  4601 ;;		On entry : 0/0
  4602 ;;		On exit  : 0/0
  4603 ;;		Unchanged: 0/0
  4604 ;; Data sizes:     COMMON   BANK0   BANK1   BANK2   BANK3   BANK4   BANK5   BANK6
  4605 ;;      Params:         0       0       0       0       0       0       0       0
  4606 ;;      Locals:         0       0       0       0       0       0       0       0
  4607 ;;      Temps:          0       0       0       0       0       0       0       0
  4608 ;;      Totals:         0       0       0       0       0       0       0       0
  4609 ;;Total ram usage:        0 bytes
  4610 ;; Hardware stack levels used: 1
  4611 ;; Hardware stack levels required when called: 3
  4612 ;; This function calls:
  4613 ;;		_ECCP3_CaptureISR
  4614 ;;		_TMR0_ISR
  4615 ;; This function is called by:
  4616 ;;		Interrupt level 1
  4617 ;; This function uses a non-reentrant model
  4618 ;;
  4619                           
  4620     0004                     _INTERRUPT_InterruptManager:
  4621                           
  4622                           ;incstack = 0
  4623     0004  147E               	bsf	int$flags,0	;set compiler interrupt flag (level 1)
  4624                           
  4625                           ; Regs used in _INTERRUPT_InterruptManager: [wreg+status,2+status,0+pclath+cstack]
  4626     0005  3180               	pagesel	$
  4627     0006                     i1l2157:
  4628                           
  4629                           ;mcc_generated_files/interrupt_manager.c: 55:     if(INTCONbits.TMR0IE == 1 && INTCONbit
      +                          s.TMR0IF == 1)
  4630     0006  1E8B               	btfss	11,5	;volatile
  4631     0007  2809               	goto	u223_21
  4632     0008  280A               	goto	u223_20
  4633     0009                     u223_21:
  4634     0009  2812               	goto	i1l53
  4635     000A                     u223_20:
  4636     000A                     i1l2159:
  4637     000A  1D0B               	btfss	11,2	;volatile
  4638     000B  280D               	goto	u224_21
  4639     000C  280E               	goto	u224_20
  4640     000D                     u224_21:
  4641     000D  2812               	goto	i1l53
  4642     000E                     u224_20:
  4643     000E                     i1l2161:
  4644                           
  4645                           ;mcc_generated_files/interrupt_manager.c: 56:     {;mcc_generated_files/interrupt_manage
      +                          r.c: 57:         TMR0_ISR();
  4646     000E  3184  2449  3180   	fcall	_TMR0_ISR
  4647                           
  4648                           ;mcc_generated_files/interrupt_manager.c: 58:     }
  4649     0011  2824               	goto	i1l59
  4650     0012                     i1l53:	
  4651                           ;mcc_generated_files/interrupt_manager.c: 59:     else if(INTCONbits.PEIE == 1)
  4652                           
  4653     0012  1F0B               	btfss	11,6	;volatile
  4654     0013  2815               	goto	u225_21
  4655     0014  2816               	goto	u225_20
  4656     0015                     u225_21:
  4657     0015  2824               	goto	i1l59
  4658     0016                     u225_20:
  4659     0016                     i1l2163:
  4660                           
  4661                           ;mcc_generated_files/interrupt_manager.c: 60:     {;mcc_generated_files/interrupt_manage
      +                          r.c: 61:         if(PIE3bits.CCP3IE == 1 && PIR3bits.CCP3IF == 1)
  4662     0016  0021               	movlb	1	; select bank1
  4663     0017  1E13               	btfss	19,4	;volatile
  4664     0018  281A               	goto	u226_21
  4665     0019  281B               	goto	u226_20
  4666     001A                     u226_21:
  4667     001A  2824               	goto	i1l58
  4668     001B                     u226_20:
  4669     001B                     i1l2165:
  4670     001B  0020               	movlb	0	; select bank0
  4671     001C  1E13               	btfss	19,4	;volatile
  4672     001D  281F               	goto	u227_21
  4673     001E  2820               	goto	u227_20
  4674     001F                     u227_21:
  4675     001F  2824               	goto	i1l58
  4676     0020                     u227_20:
  4677     0020                     i1l2167:
  4678                           
  4679                           ;mcc_generated_files/interrupt_manager.c: 62:         {;mcc_generated_files/interrupt_ma
      +                          nager.c: 63:             ECCP3_CaptureISR();
  4680     0020  3184  2484  3180   	fcall	_ECCP3_CaptureISR
  4681                           
  4682                           ;mcc_generated_files/interrupt_manager.c: 64:         }
  4683     0023  2824               	goto	i1l59
  4684     0024                     i1l58:	
  4685                           ;mcc_generated_files/interrupt_manager.c: 71:     {;mcc_generated_files/interrupt_manage
      +                          r.c: 73:     }
  4686                           
  4687     0024                     i1l59:
  4688     0024  107E               	bcf	int$flags,0	;clear compiler interrupt flag (level 1)
  4689     0025  0009               	retfie
  4690     0026                     __end_of_INTERRUPT_InterruptManager:
  4691                           
  4692                           	psect	text19
  4693     0449                     __ptext19:	
  4694 ;; *************** function _TMR0_ISR *****************
  4695 ;; Defined at:
  4696 ;;		line 108 in file "mcc_generated_files/tmr0.c"
  4697 ;; Parameters:    Size  Location     Type
  4698 ;;		None
  4699 ;; Auto vars:     Size  Location     Type
  4700 ;;		None
  4701 ;; Return value:  Size  Location     Type
  4702 ;;                  1    wreg      void 
  4703 ;; Registers used:
  4704 ;;		wreg, status,2, status,0, pclath, cstack
  4705 ;; Tracked objects:
  4706 ;;		On entry : 0/0
  4707 ;;		On exit  : 0/0
  4708 ;;		Unchanged: 0/0
  4709 ;; Data sizes:     COMMON   BANK0   BANK1   BANK2   BANK3   BANK4   BANK5   BANK6
  4710 ;;      Params:         0       0       0       0       0       0       0       0
  4711 ;;      Locals:         0       0       0       0       0       0       0       0
  4712 ;;      Temps:          0       0       0       0       0       0       0       0
  4713 ;;      Totals:         0       0       0       0       0       0       0       0
  4714 ;;Total ram usage:        0 bytes
  4715 ;; Hardware stack levels used: 1
  4716 ;; Hardware stack levels required when called: 2
  4717 ;; This function calls:
  4718 ;;		_TMR0_CallBack
  4719 ;; This function is called by:
  4720 ;;		_INTERRUPT_InterruptManager
  4721 ;; This function uses a non-reentrant model
  4722 ;;
  4723                           
  4724     0449                     _TMR0_ISR:	
  4725                           ;psect for function _TMR0_ISR
  4726                           
  4727     0449                     i1l1881:	
  4728                           ;incstack = 0
  4729                           ; Regs used in _TMR0_ISR: [wreg+status,2+status,0+pclath+cstack]
  4730                           
  4731                           
  4732                           ;mcc_generated_files/tmr0.c: 110:     static volatile uint16_t CountCallBack = 0;;mcc_ge
      +                          nerated_files/tmr0.c: 113:     INTCONbits.TMR0IF = 0;
  4733     0449  110B               	bcf	11,2	;volatile
  4734     044A                     i1l1883:
  4735                           
  4736                           ;mcc_generated_files/tmr0.c: 115:     TMR0 = timer0ReloadVal;
  4737     044A  0875               	movf	_timer0ReloadVal,w	;volatile
  4738     044B  0020               	movlb	0	; select bank0
  4739     044C  0095               	movwf	21	;volatile
  4740                           
  4741                           ;mcc_generated_files/tmr0.c: 118:     if (++CountCallBack >= 10)
  4742     044D  3001               	movlw	1
  4743     044E  07B1               	addwf	TMR0_ISR@CountCallBack,f	;volatile
  4744     044F  3000               	movlw	0
  4745     0450  3DB2               	addwfc	TMR0_ISR@CountCallBack+1,f	;volatile
  4746     0451  3000               	movlw	0
  4747     0452  0232               	subwf	TMR0_ISR@CountCallBack+1,w	;volatile
  4748     0453  300A               	movlw	10
  4749     0454  1903               	skipnz
  4750     0455  0231               	subwf	TMR0_ISR@CountCallBack,w	;volatile
  4751     0456  1C03               	skipc
  4752     0457  2C59               	goto	u141_21
  4753     0458  2C5A               	goto	u141_20
  4754     0459                     u141_21:
  4755     0459  2C60               	goto	i1l172
  4756     045A                     u141_20:
  4757     045A                     i1l1885:
  4758                           
  4759                           ;mcc_generated_files/tmr0.c: 119:     {;mcc_generated_files/tmr0.c: 121:         TMR0_Ca
      +                          llBack();
  4760     045A  3184  24AD  3184   	fcall	_TMR0_CallBack
  4761     045D                     i1l1887:
  4762                           
  4763                           ;mcc_generated_files/tmr0.c: 124:         CountCallBack = 0;
  4764     045D  0020               	movlb	0	; select bank0
  4765     045E  01B1               	clrf	TMR0_ISR@CountCallBack	;volatile
  4766     045F  01B2               	clrf	TMR0_ISR@CountCallBack+1	;volatile
  4767     0460                     i1l172:
  4768     0460  0008               	return
  4769     0461                     __end_of_TMR0_ISR:
  4770                           
  4771                           	psect	text20
  4772     04AD                     __ptext20:	
  4773 ;; *************** function _TMR0_CallBack *****************
  4774 ;; Defined at:
  4775 ;;		line 130 in file "mcc_generated_files/tmr0.c"
  4776 ;; Parameters:    Size  Location     Type
  4777 ;;		None
  4778 ;; Auto vars:     Size  Location     Type
  4779 ;;		None
  4780 ;; Return value:  Size  Location     Type
  4781 ;;                  1    wreg      void 
  4782 ;; Registers used:
  4783 ;;		wreg, status,2, status,0, pclath, cstack
  4784 ;; Tracked objects:
  4785 ;;		On entry : 0/0
  4786 ;;		On exit  : 0/0
  4787 ;;		Unchanged: 0/0
  4788 ;; Data sizes:     COMMON   BANK0   BANK1   BANK2   BANK3   BANK4   BANK5   BANK6
  4789 ;;      Params:         0       0       0       0       0       0       0       0
  4790 ;;      Locals:         0       0       0       0       0       0       0       0
  4791 ;;      Temps:          0       0       0       0       0       0       0       0
  4792 ;;      Totals:         0       0       0       0       0       0       0       0
  4793 ;;Total ram usage:        0 bytes
  4794 ;; Hardware stack levels used: 1
  4795 ;; Hardware stack levels required when called: 1
  4796 ;; This function calls:
  4797 ;;		NULL
  4798 ;;		_TMR0_DefaultInterruptHandler
  4799 ;;		_TMR0_EvenHandler
  4800 ;; This function is called by:
  4801 ;;		_TMR0_ISR
  4802 ;; This function uses a non-reentrant model
  4803 ;;
  4804                           
  4805     04AD                     _TMR0_CallBack:	
  4806                           ;psect for function _TMR0_CallBack
  4807                           
  4808     04AD                     i1l1799:	
  4809                           ;incstack = 0
  4810                           ; Regs used in _TMR0_CallBack: [wreg+status,2+status,0+pclath+cstack]
  4811                           
  4812                           
  4813                           ;mcc_generated_files/tmr0.c: 134:     if(TMR0_InterruptHandler)
  4814     04AD  0020               	movlb	0	; select bank0
  4815     04AE  0833               	movf	_TMR0_InterruptHandler,w
  4816     04AF  0434               	iorwf	_TMR0_InterruptHandler+1,w
  4817     04B0  1903               	btfsc	3,2
  4818     04B1  2CB3               	goto	u119_21
  4819     04B2  2CB4               	goto	u119_20
  4820     04B3                     u119_21:
  4821     04B3  2CB9               	goto	i1l176
  4822     04B4                     u119_20:
  4823     04B4                     i1l1801:
  4824                           
  4825                           ;mcc_generated_files/tmr0.c: 135:     {;mcc_generated_files/tmr0.c: 136:         TMR0_In
      +                          terruptHandler();
  4826     04B4  0834               	movf	_TMR0_InterruptHandler+1,w
  4827     04B5  008A               	movwf	10
  4828     04B6  0833               	movf	_TMR0_InterruptHandler,w
  4829     04B7  000A               	callw
  4830     04B8  3184               	pagesel	$
  4831     04B9                     i1l176:
  4832     04B9  0008               	return
  4833     04BA                     __end_of_TMR0_CallBack:
  4834                           
  4835                           	psect	text21
  4836     04FA                     __ptext21:	
  4837 ;; *************** function _TMR0_DefaultInterruptHandler *****************
  4838 ;; Defined at:
  4839 ;;		line 144 in file "mcc_generated_files/tmr0.c"
  4840 ;; Parameters:    Size  Location     Type
  4841 ;;		None
  4842 ;; Auto vars:     Size  Location     Type
  4843 ;;		None
  4844 ;; Return value:  Size  Location     Type
  4845 ;;                  1    wreg      void 
  4846 ;; Registers used:
  4847 ;;		None
  4848 ;; Tracked objects:
  4849 ;;		On entry : 0/0
  4850 ;;		On exit  : 0/0
  4851 ;;		Unchanged: 0/0
  4852 ;; Data sizes:     COMMON   BANK0   BANK1   BANK2   BANK3   BANK4   BANK5   BANK6
  4853 ;;      Params:         0       0       0       0       0       0       0       0
  4854 ;;      Locals:         0       0       0       0       0       0       0       0
  4855 ;;      Temps:          0       0       0       0       0       0       0       0
  4856 ;;      Totals:         0       0       0       0       0       0       0       0
  4857 ;;Total ram usage:        0 bytes
  4858 ;; Hardware stack levels used: 1
  4859 ;; This function calls:
  4860 ;;		Nothing
  4861 ;; This function is called by:
  4862 ;;		_TMR0_Initialize
  4863 ;;		_TMR0_CallBack
  4864 ;; This function uses a non-reentrant model
  4865 ;;
  4866                           
  4867     04FA                     _TMR0_DefaultInterruptHandler:	
  4868                           ;psect for function _TMR0_DefaultInterruptHandler
  4869                           
  4870     04FA                     i1l182:	
  4871                           ;incstack = 0
  4872                           ; Regs used in _TMR0_DefaultInterruptHandler: []
  4873                           
  4874     04FA  0008               	return
  4875     04FB                     __end_of_TMR0_DefaultInterruptHandler:
  4876                           
  4877                           	psect	text22
  4878     0475                     __ptext22:	
  4879 ;; *************** function _TMR0_EvenHandler *****************
  4880 ;; Defined at:
  4881 ;;		line 742 in file "main.c"
  4882 ;; Parameters:    Size  Location     Type
  4883 ;;		None
  4884 ;; Auto vars:     Size  Location     Type
  4885 ;;		None
  4886 ;; Return value:  Size  Location     Type
  4887 ;;                  1    wreg      void 
  4888 ;; Registers used:
  4889 ;;		wreg, status,2, status,0
  4890 ;; Tracked objects:
  4891 ;;		On entry : 0/0
  4892 ;;		On exit  : 0/0
  4893 ;;		Unchanged: 0/0
  4894 ;; Data sizes:     COMMON   BANK0   BANK1   BANK2   BANK3   BANK4   BANK5   BANK6
  4895 ;;      Params:         0       0       0       0       0       0       0       0
  4896 ;;      Locals:         0       0       0       0       0       0       0       0
  4897 ;;      Temps:          1       0       0       0       0       0       0       0
  4898 ;;      Totals:         1       0       0       0       0       0       0       0
  4899 ;;Total ram usage:        1 bytes
  4900 ;; Hardware stack levels used: 1
  4901 ;; This function calls:
  4902 ;;		Nothing
  4903 ;; This function is called by:
  4904 ;;		_main
  4905 ;;		_TMR0_CallBack
  4906 ;; This function uses a non-reentrant model
  4907 ;;
  4908                           
  4909     0475                     _TMR0_EvenHandler:	
  4910                           ;psect for function _TMR0_EvenHandler
  4911                           
  4912     0475                     i1l1707:	
  4913                           ;incstack = 0
  4914                           ; Regs used in _TMR0_EvenHandler: [wreg+status,2+status,0]
  4915                           
  4916                           
  4917                           ;main.c: 743:   T10MS_CNT++;
  4918     0475  3001               	movlw	1
  4919     0476  00F6               	movwf	??_TMR0_EvenHandler
  4920     0477  0876               	movf	??_TMR0_EvenHandler,w
  4921     0478  0020               	movlb	0	; select bank0
  4922     0479  07BF               	addwf	_T10MS_CNT,f	;volatile
  4923     047A                     i1l1709:
  4924                           
  4925                           ;main.c: 744:   if (T10MS_CNT >= 200) {
  4926     047A  30C8               	movlw	200
  4927     047B  023F               	subwf	_T10MS_CNT,w	;volatile
  4928     047C  1C03               	skipc
  4929     047D  2C7F               	goto	u117_21
  4930     047E  2C80               	goto	u117_20
  4931     047F                     u117_21:
  4932     047F  2C83               	goto	i1l527
  4933     0480                     u117_20:
  4934     0480                     i1l1711:
  4935                           
  4936                           ;main.c: 745:     fException2 = 1;
  4937     0480  01BD               	clrf	_fException2
  4938     0481  0ABD               	incf	_fException2,f
  4939     0482                     i1l1713:
  4940                           
  4941                           ;main.c: 746:     T10MS_CNT = 0;
  4942     0482  01BF               	clrf	_T10MS_CNT	;volatile
  4943     0483                     i1l527:
  4944     0483  0008               	return
  4945     0484                     __end_of_TMR0_EvenHandler:
  4946                           
  4947                           	psect	text23
  4948     0484                     __ptext23:	
  4949 ;; *************** function _ECCP3_CaptureISR *****************
  4950 ;; Defined at:
  4951 ;;		line 80 in file "mcc_generated_files/eccp3.c"
  4952 ;; Parameters:    Size  Location     Type
  4953 ;;		None
  4954 ;; Auto vars:     Size  Location     Type
  4955 ;;  module          2    4[COMMON] struct CCPR3Reg_tag
  4956 ;; Return value:  Size  Location     Type
  4957 ;;                  1    wreg      void 
  4958 ;; Registers used:
  4959 ;;		wreg, status,2, status,0, pclath, cstack
  4960 ;; Tracked objects:
  4961 ;;		On entry : 0/0
  4962 ;;		On exit  : 0/0
  4963 ;;		Unchanged: 0/0
  4964 ;; Data sizes:     COMMON   BANK0   BANK1   BANK2   BANK3   BANK4   BANK5   BANK6
  4965 ;;      Params:         0       0       0       0       0       0       0       0
  4966 ;;      Locals:         2       0       0       0       0       0       0       0
  4967 ;;      Temps:          0       0       0       0       0       0       0       0
  4968 ;;      Totals:         2       0       0       0       0       0       0       0
  4969 ;;Total ram usage:        2 bytes
  4970 ;; Hardware stack levels used: 1
  4971 ;; Hardware stack levels required when called: 1
  4972 ;; This function calls:
  4973 ;;		_ECCP3_CallBack
  4974 ;; This function is called by:
  4975 ;;		_INTERRUPT_InterruptManager
  4976 ;; This function uses a non-reentrant model
  4977 ;;
  4978                           
  4979     0484                     _ECCP3_CaptureISR:	
  4980                           ;psect for function _ECCP3_CaptureISR
  4981                           
  4982     0484                     i1l1889:	
  4983                           ;incstack = 0
  4984                           ; Regs used in _ECCP3_CaptureISR: [wreg+status,2+status,0+pclath+cstack]
  4985                           
  4986                           
  4987                           ;mcc_generated_files/eccp3.c: 82:     CCP3_PERIOD_REG_T module;;mcc_generated_files/eccp
      +                          3.c: 85:     PIR3bits.CCP3IF = 0;
  4988     0484  0020               	movlb	0	; select bank0
  4989     0485  1213               	bcf	19,4	;volatile
  4990     0486                     i1l1891:
  4991                           
  4992                           ;mcc_generated_files/eccp3.c: 88:     module.ccpr3l = CCPR3L;
  4993     0486  0026               	movlb	6	; select bank6
  4994     0487  0811               	movf	17,w	;volatile
  4995     0488  00FA               	movwf	ECCP3_CaptureISR@module
  4996                           
  4997                           ;mcc_generated_files/eccp3.c: 89:     module.ccpr3h = CCPR3H;
  4998     0489  0812               	movf	18,w	;volatile
  4999     048A  00FB               	movwf	ECCP3_CaptureISR@module+1
  5000     048B                     i1l1893:
  5001                           
  5002                           ;mcc_generated_files/eccp3.c: 92:     ECCP3_CallBack(module.ccpr3_16Bit);
  5003     048B  087B               	movf	ECCP3_CaptureISR@module+1,w
  5004     048C  00F7               	movwf	ECCP3_CallBack@capturedValue+1
  5005     048D  087A               	movf	ECCP3_CaptureISR@module,w
  5006     048E  00F6               	movwf	ECCP3_CallBack@capturedValue
  5007     048F  3181  21C5  3184   	fcall	_ECCP3_CallBack
  5008     0492                     i1l232:
  5009     0492  0008               	return
  5010     0493                     __end_of_ECCP3_CaptureISR:
  5011                           
  5012                           	psect	text24
  5013     01C5                     __ptext24:	
  5014 ;; *************** function _ECCP3_CallBack *****************
  5015 ;; Defined at:
  5016 ;;		line 668 in file "main.c"
  5017 ;; Parameters:    Size  Location     Type
  5018 ;;  capturedValu    2    0[COMMON] unsigned short 
  5019 ;; Auto vars:     Size  Location     Type
  5020 ;;		None
  5021 ;; Return value:  Size  Location     Type
  5022 ;;                  1    wreg      void 
  5023 ;; Registers used:
  5024 ;;		wreg, status,2, status,0
  5025 ;; Tracked objects:
  5026 ;;		On entry : 0/0
  5027 ;;		On exit  : 0/0
  5028 ;;		Unchanged: 0/0
  5029 ;; Data sizes:     COMMON   BANK0   BANK1   BANK2   BANK3   BANK4   BANK5   BANK6
  5030 ;;      Params:         2       0       0       0       0       0       0       0
  5031 ;;      Locals:         0       0       0       0       0       0       0       0
  5032 ;;      Temps:          2       0       0       0       0       0       0       0
  5033 ;;      Totals:         4       0       0       0       0       0       0       0
  5034 ;;Total ram usage:        4 bytes
  5035 ;; Hardware stack levels used: 1
  5036 ;; This function calls:
  5037 ;;		Nothing
  5038 ;; This function is called by:
  5039 ;;		_ECCP3_CaptureISR
  5040 ;; This function uses a non-reentrant model
  5041 ;;
  5042                           
  5043     01C5                     _ECCP3_CallBack:	
  5044                           ;psect for function _ECCP3_CallBack
  5045                           
  5046     01C5                     i1l1803:	
  5047                           ;incstack = 0
  5048                           ; Regs used in _ECCP3_CallBack: [wreg+status,2+status,0]
  5049                           
  5050                           
  5051                           ;main.c: 669:   static uint16_t pluse_width_LO = 0;;main.c: 670:   static uint16_t pluse
      +                          _width_HI = 0;;main.c: 671:   static uint8_t HI_us = 0;;main.c: 672:   static uint8_t LO
      +                          _us = 0;;main.c: 673:   static uint8_t diff_us = 0;;main.c: 674:   static uint16_t falli
      +                          ng_edge_time = 0;;main.c: 675:   static uint16_t rising_edge_time = 0;;main.c: 676:   st
      +                          atic _Bool rise_edge_flag = 0;;main.c: 677:   static _Bool fHead = 0;;main.c: 678:   sta
      +                          tic uint8_t data_cnt = 0;;main.c: 681:   if (CCP3CON == 0x04) {
  5052     01C5  3004               	movlw	4
  5053     01C6  0026               	movlb	6	; select bank6
  5054     01C7  0613               	xorwf	19,w	;volatile
  5055     01C8  1D03               	btfss	3,2
  5056     01C9  29CB               	goto	u120_21
  5057     01CA  29CC               	goto	u120_20
  5058     01CB                     u120_21:
  5059     01CB  2A62               	goto	i1l1843
  5060     01CC                     u120_20:
  5061     01CC                     i1l1805:
  5062                           
  5063                           ;main.c: 682:     falling_edge_time = capturedValue;
  5064     01CC  0877               	movf	ECCP3_CallBack@capturedValue+1,w
  5065     01CD  00F1               	movwf	ECCP3_CallBack@falling_edge_time+1
  5066     01CE  0876               	movf	ECCP3_CallBack@capturedValue,w
  5067     01CF  00F0               	movwf	ECCP3_CallBack@falling_edge_time
  5068                           
  5069                           ;main.c: 683:     CCP3CON = 0x05;
  5070     01D0  3005               	movlw	5
  5071     01D1  0093               	movwf	19	;volatile
  5072     01D2                     i1l1807:
  5073                           
  5074                           ;main.c: 684:     if (rise_edge_flag == 1) {
  5075     01D2  0020               	movlb	0	; select bank0
  5076     01D3  0339               	decf	ECCP3_CallBack@rise_edge_flag,w
  5077     01D4  1D03               	btfss	3,2
  5078     01D5  29D7               	goto	u121_21
  5079     01D6  29D8               	goto	u121_20
  5080     01D7                     u121_21:
  5081     01D7  2A90               	goto	i1l523
  5082     01D8                     u121_20:
  5083     01D8                     i1l1809:
  5084                           
  5085                           ;main.c: 685:       rise_edge_flag = 0;
  5086     01D8  01B9               	clrf	ECCP3_CallBack@rise_edge_flag
  5087     01D9                     i1l1811:
  5088                           
  5089                           ;main.c: 687:       if (falling_edge_time >= rising_edge_time) {
  5090     01D9  082C               	movf	ECCP3_CallBack@rising_edge_time+1,w
  5091     01DA  0271               	subwf	ECCP3_CallBack@falling_edge_time+1,w
  5092     01DB  1D03               	skipz
  5093     01DC  29DF               	goto	u122_25
  5094     01DD  082B               	movf	ECCP3_CallBack@rising_edge_time,w
  5095     01DE  0270               	subwf	ECCP3_CallBack@falling_edge_time,w
  5096     01DF                     u122_25:
  5097     01DF  1C03               	skipc
  5098     01E0  29E2               	goto	u122_21
  5099     01E1  29E3               	goto	u122_20
  5100     01E2                     u122_21:
  5101     01E2  29EA               	goto	i1l1815
  5102     01E3                     u122_20:
  5103     01E3                     i1l1813:
  5104                           
  5105                           ;main.c: 688:         pluse_width_HI = falling_edge_time - rising_edge_time;
  5106     01E3  082B               	movf	ECCP3_CallBack@rising_edge_time,w
  5107     01E4  0270               	subwf	ECCP3_CallBack@falling_edge_time,w
  5108     01E5  00AD               	movwf	ECCP3_CallBack@pluse_width_HI
  5109     01E6  082C               	movf	ECCP3_CallBack@rising_edge_time+1,w
  5110     01E7  3B71               	subwfb	ECCP3_CallBack@falling_edge_time+1,w
  5111     01E8  00AE               	movwf	ECCP3_CallBack@pluse_width_HI+1
  5112                           
  5113                           ;main.c: 689:       } else {
  5114     01E9  29F6               	goto	i1l502
  5115     01EA                     i1l1815:
  5116                           
  5117                           ;main.c: 690:         pluse_width_HI = (0xffff - rising_edge_time) + falling_edge_time;
  5118     01EA  082C               	movf	ECCP3_CallBack@rising_edge_time+1,w
  5119     01EB  00F9               	movwf	??_ECCP3_CallBack+1
  5120     01EC  082B               	movf	ECCP3_CallBack@rising_edge_time,w
  5121     01ED  00F8               	movwf	??_ECCP3_CallBack
  5122     01EE  09F8               	comf	??_ECCP3_CallBack,f
  5123     01EF  09F9               	comf	??_ECCP3_CallBack+1,f
  5124     01F0  0870               	movf	ECCP3_CallBack@falling_edge_time,w
  5125     01F1  0778               	addwf	??_ECCP3_CallBack,w
  5126     01F2  00AD               	movwf	ECCP3_CallBack@pluse_width_HI
  5127     01F3  0871               	movf	ECCP3_CallBack@falling_edge_time+1,w
  5128     01F4  3D79               	addwfc	??_ECCP3_CallBack+1,w
  5129     01F5  00AE               	movwf	ECCP3_CallBack@pluse_width_HI+1
  5130     01F6                     i1l502:	
  5131                           ;main.c: 691:       }
  5132                           
  5133                           
  5134                           ;main.c: 692:       LO_us = (pluse_width_LO >> 3) & 0xff;
  5135     01F6  0830               	movf	ECCP3_CallBack@pluse_width_LO+1,w
  5136     01F7  00F9               	movwf	??_ECCP3_CallBack+1
  5137     01F8  082F               	movf	ECCP3_CallBack@pluse_width_LO,w
  5138     01F9  00F8               	movwf	??_ECCP3_CallBack
  5139     01FA  36F9               	lsrf	??_ECCP3_CallBack+1,f
  5140     01FB  0CF8               	rrf	??_ECCP3_CallBack,f
  5141     01FC  36F9               	lsrf	??_ECCP3_CallBack+1,f
  5142     01FD  0CF8               	rrf	??_ECCP3_CallBack,f
  5143     01FE  36F9               	lsrf	??_ECCP3_CallBack+1,f
  5144     01FF  0CF8               	rrf	??_ECCP3_CallBack,f
  5145     0200  0878               	movf	??_ECCP3_CallBack,w
  5146     0201  00BB               	movwf	ECCP3_CallBack@LO_us
  5147                           
  5148                           ;main.c: 693:       HI_us = (pluse_width_HI >> 3) & 0xff;
  5149     0202  082E               	movf	ECCP3_CallBack@pluse_width_HI+1,w
  5150     0203  00F9               	movwf	??_ECCP3_CallBack+1
  5151     0204  082D               	movf	ECCP3_CallBack@pluse_width_HI,w
  5152     0205  00F8               	movwf	??_ECCP3_CallBack
  5153     0206  36F9               	lsrf	??_ECCP3_CallBack+1,f
  5154     0207  0CF8               	rrf	??_ECCP3_CallBack,f
  5155     0208  36F9               	lsrf	??_ECCP3_CallBack+1,f
  5156     0209  0CF8               	rrf	??_ECCP3_CallBack,f
  5157     020A  36F9               	lsrf	??_ECCP3_CallBack+1,f
  5158     020B  0CF8               	rrf	??_ECCP3_CallBack,f
  5159     020C  0878               	movf	??_ECCP3_CallBack,w
  5160     020D  00F2               	movwf	ECCP3_CallBack@HI_us
  5161     020E                     i1l1817:
  5162                           
  5163                           ;main.c: 694:       if (HI_us > LO_us)
  5164     020E  0872               	movf	ECCP3_CallBack@HI_us,w
  5165     020F  023B               	subwf	ECCP3_CallBack@LO_us,w
  5166     0210  1803               	skipnc
  5167     0211  2A13               	goto	u123_21
  5168     0212  2A14               	goto	u123_20
  5169     0213                     u123_21:
  5170     0213  2A18               	goto	i1l1821
  5171     0214                     u123_20:
  5172     0214                     i1l1819:
  5173                           
  5174                           ;main.c: 695:         diff_us = HI_us - LO_us;
  5175     0214  083B               	movf	ECCP3_CallBack@LO_us,w
  5176     0215  0272               	subwf	ECCP3_CallBack@HI_us,w
  5177     0216  00BA               	movwf	ECCP3_CallBack@diff_us
  5178     0217  2A1B               	goto	i1l504
  5179     0218                     i1l1821:
  5180                           
  5181                           ;main.c: 697:         diff_us = LO_us - HI_us;
  5182     0218  0872               	movf	ECCP3_CallBack@HI_us,w
  5183     0219  023B               	subwf	ECCP3_CallBack@LO_us,w
  5184     021A  00BA               	movwf	ECCP3_CallBack@diff_us
  5185     021B                     i1l504:
  5186                           
  5187                           ;main.c: 699:       if (fHead == 0) {
  5188     021B  0838               	movf	ECCP3_CallBack@fHead,w
  5189     021C  1D03               	btfss	3,2
  5190     021D  2A1F               	goto	u124_21
  5191     021E  2A20               	goto	u124_20
  5192     021F                     u124_21:
  5193     021F  2A2F               	goto	i1l1831
  5194     0220                     u124_20:
  5195     0220                     i1l506:	
  5196                           ;main.c: 700:         do { LATCbits.LATC4 = 1; } while(0);
  5197                           
  5198     0220  0022               	movlb	2	; select bank2
  5199     0221  160E               	bsf	14,4	;volatile
  5200     0222                     i1l1823:
  5201                           
  5202                           ;main.c: 702:         if (diff_us < (16)) {
  5203     0222  3010               	movlw	16
  5204     0223  0020               	movlb	0	; select bank0
  5205     0224  023A               	subwf	ECCP3_CallBack@diff_us,w
  5206     0225  1803               	skipnc
  5207     0226  2A28               	goto	u125_21
  5208     0227  2A29               	goto	u125_20
  5209     0228                     u125_21:
  5210     0228  2A90               	goto	i1l523
  5211     0229                     u125_20:
  5212     0229                     i1l1825:
  5213                           
  5214                           ;main.c: 704:           fHead = 1;
  5215     0229  01B8               	clrf	ECCP3_CallBack@fHead
  5216     022A  0AB8               	incf	ECCP3_CallBack@fHead,f
  5217     022B                     i1l1827:
  5218                           
  5219                           ;main.c: 705:           data_cnt = 0;
  5220     022B  01B7               	clrf	ECCP3_CallBack@data_cnt
  5221     022C                     i1l1829:
  5222     022C  0022               	movlb	2	; select bank2
  5223     022D  120E               	bcf	14,4	;volatile
  5224     022E  2A90               	goto	i1l523
  5225     022F                     i1l1831:
  5226                           
  5227                           ;main.c: 710:         if (diff_us < (16)) {
  5228     022F  3010               	movlw	16
  5229     0230  023A               	subwf	ECCP3_CallBack@diff_us,w
  5230     0231  1803               	skipnc
  5231     0232  2A34               	goto	u126_21
  5232     0233  2A35               	goto	u126_20
  5233     0234                     u126_21:
  5234     0234  2A45               	goto	i1l516
  5235     0235                     u126_20:
  5236     0235                     i1l513:	
  5237                           ;main.c: 712:           do { LATCbits.LATC4 = 0; } while(0);
  5238                           
  5239     0235  0022               	movlb	2	; select bank2
  5240     0236  120E               	bcf	14,4	;volatile
  5241     0237                     i1l1833:
  5242                           
  5243                           ;main.c: 713:           rx_data &= ~(1 << data_cnt);
  5244     0237  3001               	movlw	1
  5245     0238  00F8               	movwf	??_ECCP3_CallBack
  5246     0239  0020               	movlb	0	; select bank0
  5247     023A  0A37               	incf	ECCP3_CallBack@data_cnt,w
  5248     023B  2A3D               	goto	u127_24
  5249     023C                     u127_25:
  5250     023C  35F8               	lslf	??_ECCP3_CallBack,f
  5251     023D                     u127_24:
  5252     023D  0B89               	decfsz	9,f
  5253     023E  2A3C               	goto	u127_25
  5254     023F  0878               	movf	??_ECCP3_CallBack,w
  5255     0240  3AFF               	xorlw	255
  5256     0241  00F9               	movwf	??_ECCP3_CallBack+1
  5257     0242  0879               	movf	??_ECCP3_CallBack+1,w
  5258     0243  05F4               	andwf	_rx_data,f
  5259                           
  5260                           ;main.c: 714:         } else {
  5261     0244  2A53               	goto	i1l515
  5262     0245                     i1l516:	
  5263                           ;main.c: 716:           do { LATCbits.LATC4 = 1; } while(0);
  5264                           
  5265     0245  0022               	movlb	2	; select bank2
  5266     0246  160E               	bsf	14,4	;volatile
  5267     0247                     i1l1835:
  5268                           
  5269                           ;main.c: 717:           rx_data |= (1 << data_cnt);
  5270     0247  3001               	movlw	1
  5271     0248  00F8               	movwf	??_ECCP3_CallBack
  5272     0249  0020               	movlb	0	; select bank0
  5273     024A  0A37               	incf	ECCP3_CallBack@data_cnt,w
  5274     024B  2A4D               	goto	u128_24
  5275     024C                     u128_25:
  5276     024C  35F8               	lslf	??_ECCP3_CallBack,f
  5277     024D                     u128_24:
  5278     024D  0B89               	decfsz	9,f
  5279     024E  2A4C               	goto	u128_25
  5280     024F  0878               	movf	??_ECCP3_CallBack,w
  5281     0250  00F9               	movwf	??_ECCP3_CallBack+1
  5282     0251  0879               	movf	??_ECCP3_CallBack+1,w
  5283     0252  04F4               	iorwf	_rx_data,f
  5284     0253                     i1l515:	
  5285                           ;main.c: 718:         }
  5286                           
  5287                           
  5288                           ;main.c: 720:         data_cnt++;
  5289     0253  3001               	movlw	1
  5290     0254  00F8               	movwf	??_ECCP3_CallBack
  5291     0255  0878               	movf	??_ECCP3_CallBack,w
  5292     0256  07B7               	addwf	ECCP3_CallBack@data_cnt,f
  5293     0257                     i1l1837:
  5294                           
  5295                           ;main.c: 721:         if (data_cnt > 7) {
  5296     0257  3008               	movlw	8
  5297     0258  0237               	subwf	ECCP3_CallBack@data_cnt,w
  5298     0259  1C03               	skipc
  5299     025A  2A5C               	goto	u129_21
  5300     025B  2A5D               	goto	u129_20
  5301     025C                     u129_21:
  5302     025C  2A61               	goto	i1l500
  5303     025D                     u129_20:
  5304     025D                     i1l1839:
  5305                           
  5306                           ;main.c: 722:           fHead = 0;
  5307     025D  01B8               	clrf	ECCP3_CallBack@fHead
  5308     025E                     i1l1841:
  5309                           
  5310                           ;main.c: 723:           data_1byte_OK = 1;
  5311     025E  3001               	movlw	1
  5312     025F  00C4               	movwf	_data_1byte_OK	;volatile
  5313     0260  2A90               	goto	i1l523
  5314     0261                     i1l500:	
  5315                           ;main.c: 726:     }
  5316                           
  5317                           
  5318                           ;main.c: 728:   }
  5319     0261  2A90               	goto	i1l523
  5320     0262                     i1l1843:
  5321     0262  3005               	movlw	5
  5322     0263  0613               	xorwf	19,w	;volatile
  5323     0264  1D03               	btfss	3,2
  5324     0265  2A67               	goto	u130_21
  5325     0266  2A68               	goto	u130_20
  5326     0267                     u130_21:
  5327     0267  2A90               	goto	i1l523
  5328     0268                     u130_20:
  5329     0268                     i1l1845:
  5330                           
  5331                           ;main.c: 730:     rising_edge_time = capturedValue;
  5332     0268  0877               	movf	ECCP3_CallBack@capturedValue+1,w
  5333     0269  0020               	movlb	0	; select bank0
  5334     026A  00AC               	movwf	ECCP3_CallBack@rising_edge_time+1
  5335     026B  0876               	movf	ECCP3_CallBack@capturedValue,w
  5336     026C  00AB               	movwf	ECCP3_CallBack@rising_edge_time
  5337                           
  5338                           ;main.c: 731:     CCP3CON = 0x04;
  5339     026D  3004               	movlw	4
  5340     026E  0026               	movlb	6	; select bank6
  5341     026F  0093               	movwf	19	;volatile
  5342                           
  5343                           ;main.c: 733:     if (rising_edge_time >= falling_edge_time) {
  5344     0270  0871               	movf	ECCP3_CallBack@falling_edge_time+1,w
  5345     0271  0020               	movlb	0	; select bank0
  5346     0272  022C               	subwf	ECCP3_CallBack@rising_edge_time+1,w
  5347     0273  1D03               	skipz
  5348     0274  2A77               	goto	u131_25
  5349     0275  0870               	movf	ECCP3_CallBack@falling_edge_time,w
  5350     0276  022B               	subwf	ECCP3_CallBack@rising_edge_time,w
  5351     0277                     u131_25:
  5352     0277  1C03               	skipc
  5353     0278  2A7A               	goto	u131_21
  5354     0279  2A7B               	goto	u131_20
  5355     027A                     u131_21:
  5356     027A  2A82               	goto	i1l1849
  5357     027B                     u131_20:
  5358     027B                     i1l1847:
  5359                           
  5360                           ;main.c: 734:       pluse_width_LO = rising_edge_time - falling_edge_time;
  5361     027B  0870               	movf	ECCP3_CallBack@falling_edge_time,w
  5362     027C  022B               	subwf	ECCP3_CallBack@rising_edge_time,w
  5363     027D  00AF               	movwf	ECCP3_CallBack@pluse_width_LO
  5364     027E  0871               	movf	ECCP3_CallBack@falling_edge_time+1,w
  5365     027F  3B2C               	subwfb	ECCP3_CallBack@rising_edge_time+1,w
  5366     0280  00B0               	movwf	ECCP3_CallBack@pluse_width_LO+1
  5367                           
  5368                           ;main.c: 735:     } else {
  5369     0281  2A8E               	goto	i1l1851
  5370     0282                     i1l1849:
  5371                           
  5372                           ;main.c: 736:       pluse_width_LO = (0xffff - falling_edge_time) + rising_edge_time;
  5373     0282  0871               	movf	ECCP3_CallBack@falling_edge_time+1,w
  5374     0283  00F9               	movwf	??_ECCP3_CallBack+1
  5375     0284  0870               	movf	ECCP3_CallBack@falling_edge_time,w
  5376     0285  00F8               	movwf	??_ECCP3_CallBack
  5377     0286  09F8               	comf	??_ECCP3_CallBack,f
  5378     0287  09F9               	comf	??_ECCP3_CallBack+1,f
  5379     0288  082B               	movf	ECCP3_CallBack@rising_edge_time,w
  5380     0289  0778               	addwf	??_ECCP3_CallBack,w
  5381     028A  00AF               	movwf	ECCP3_CallBack@pluse_width_LO
  5382     028B  082C               	movf	ECCP3_CallBack@rising_edge_time+1,w
  5383     028C  3D79               	addwfc	??_ECCP3_CallBack+1,w
  5384     028D  00B0               	movwf	ECCP3_CallBack@pluse_width_LO+1
  5385     028E                     i1l1851:
  5386                           
  5387                           ;main.c: 738:     rise_edge_flag = 1;
  5388     028E  01B9               	clrf	ECCP3_CallBack@rise_edge_flag
  5389     028F  0AB9               	incf	ECCP3_CallBack@rise_edge_flag,f
  5390     0290                     i1l523:
  5391     0290  0008               	return
  5392     0291                     __end_of_ECCP3_CallBack:
  5393     007E                     btemp	set	126	;btemp
  5394     007E                     int$flags	set	126
  5395     007E                     wtemp0	set	126
  5396                           
  5397                           	psect	config
  5398                           
  5399                           ;Config register CONFIG1 @ 0x8007
  5400                           ;	Oscillator Selection
  5401                           ;	FOSC = INTOSC, INTOSC oscillator: I/O function on CLKIN pin
  5402                           ;	Watchdog Timer Enable
  5403                           ;	WDTE = OFF, WDT disabled
  5404                           ;	Power-up Timer Enable
  5405                           ;	PWRTE = ON, PWRT enabled
  5406                           ;	MCLR Pin Function Select
  5407                           ;	MCLRE = ON, MCLR/VPP pin function is MCLR
  5408                           ;	Flash Program Memory Code Protection
  5409                           ;	CP = OFF, Program memory code protection is disabled
  5410                           ;	Data Memory Code Protection
  5411                           ;	CPD = OFF, Data memory code protection is disabled
  5412                           ;	Brown-out Reset Enable
  5413                           ;	BOREN = ON, Brown-out Reset enabled
  5414                           ;	Clock Out Enable
  5415                           ;	CLKOUTEN = OFF, CLKOUT function is disabled. I/O or oscillator function on the CLKOUT 
      +                          pin
  5416                           ;	Internal/External Switchover
  5417                           ;	IESO = ON, Internal/External Switchover mode is enabled
  5418                           ;	Fail-Safe Clock Monitor Enable
  5419                           ;	FCMEN = ON, Fail-Safe Clock Monitor is enabled
  5420     8007                     	org	32775
  5421     8007  3FC4               	dw	16324
  5422                           
  5423                           ;Config register CONFIG2 @ 0x8008
  5424                           ;	Flash Memory Self-Write Protection
  5425                           ;	WRT = OFF, Write protection off
  5426                           ;	Voltage Regulator Capacitor Enable
  5427                           ;	VCAPEN = OFF, All VCAP pin functionality is disabled
  5428                           ;	PLL Enable
  5429                           ;	PLLEN = ON, 4x PLL enabled
  5430                           ;	Stack Overflow/Underflow Reset Enable
  5431                           ;	STVREN = ON, Stack Overflow or Underflow will cause a Reset
  5432                           ;	Brown-out Reset Voltage Selection
  5433                           ;	BORV = LO, Brown-out Reset Voltage (Vbor), low trip point selected.
  5434                           ;	Low-Voltage Programming Enable
  5435                           ;	LVP = OFF, High-voltage on MCLR/VPP must be used for programming
  5436     8008                     	org	32776
  5437     8008  1FFF               	dw	8191

Data Sizes:
    Strings     0
    Constant    0
    Data        64
    BSS         43
    Persistent  32
    Stack       0

Auto Spaces:
    Space          Size  Autos    Used
    COMMON           14      6      12
    BANK0            80      3      40
    BANK1            80      0      64
    BANK2            80      0       0
    BANK3            80      0       0
    BANK4            80      0       0
    BANK5            80      0       0
    BANK6            16      0       0

Pointer List with Targets:

    TMR0_InterruptHandler	PTR FTN()void  size(2) Largest target is 1
		 -> TMR0_DefaultInterruptHandler(), TMR0_EvenHandler(), NULL(), 

    TMR0_SetInterruptHandler@InterruptHandler	PTR FTN()void  size(2) Largest target is 1
		 -> TMR0_DefaultInterruptHandler(), TMR0_EvenHandler(), 


Critical Paths under _main in COMMON

    None.

Critical Paths under _INTERRUPT_InterruptManager in COMMON

    _INTERRUPT_InterruptManager->_ECCP3_CaptureISR
    _TMR0_CallBack->_TMR0_EvenHandler
    _ECCP3_CaptureISR->_ECCP3_CallBack

Critical Paths under _main in BANK0

    _main->_LED_output
    _TMR0_Initialize->_TMR0_SetInterruptHandler

Critical Paths under _INTERRUPT_InterruptManager in BANK0

    None.

Critical Paths under _main in BANK1

    None.

Critical Paths under _INTERRUPT_InterruptManager in BANK1

    None.

Critical Paths under _main in BANK2

    None.

Critical Paths under _INTERRUPT_InterruptManager in BANK2

    None.

Critical Paths under _main in BANK3

    None.

Critical Paths under _INTERRUPT_InterruptManager in BANK3

    None.

Critical Paths under _main in BANK4

    None.

Critical Paths under _INTERRUPT_InterruptManager in BANK4

    None.

Critical Paths under _main in BANK5

    None.

Critical Paths under _INTERRUPT_InterruptManager in BANK5

    None.

Critical Paths under _main in BANK6

    None.

Critical Paths under _INTERRUPT_InterruptManager in BANK6

    None.

Call Graph Tables:

 ---------------------------------------------------------------------------------
 (Depth) Function   	        Calls       Base Space   Used Autos Params    Refs
 ---------------------------------------------------------------------------------
 (0) _main                                                 0     0      0     555
                 _Exception_handling
                         _LED_output
                          _LoBeam_ON
                             _POS_ON
                  _SYSTEM_Initialize
           _TMR0_SetInterruptHandler
                        _check_input
                       _getFrameData
 ---------------------------------------------------------------------------------
 (1) _getFrameData                                         0     0      0       0
 ---------------------------------------------------------------------------------
 (1) _check_input                                          0     0      0       0
 ---------------------------------------------------------------------------------
 (1) _SYSTEM_Initialize                                    0     0      0     211
                   _ECCP3_Initialize
                   _EPWM1_Initialize
              _OSCILLATOR_Initialize
             _PIN_MANAGER_Initialize
                    _TMR0_Initialize
                    _TMR1_Initialize
                    _TMR2_Initialize
                     _WDT_Initialize
 ---------------------------------------------------------------------------------
 (2) _WDT_Initialize                                       0     0      0       0
 ---------------------------------------------------------------------------------
 (2) _TMR2_Initialize                                      0     0      0       0
 ---------------------------------------------------------------------------------
 (2) _TMR1_Initialize                                      0     0      0       0
 ---------------------------------------------------------------------------------
 (2) _TMR0_Initialize                                      0     0      0     211
           _TMR0_SetInterruptHandler
 ---------------------------------------------------------------------------------
 (1) _TMR0_SetInterruptHandler                             2     0      2     211
                                              0 BANK0      2     0      2
 ---------------------------------------------------------------------------------
 (2) _PIN_MANAGER_Initialize                               0     0      0       0
 ---------------------------------------------------------------------------------
 (2) _OSCILLATOR_Initialize                                0     0      0       0
 ---------------------------------------------------------------------------------
 (2) _EPWM1_Initialize                                     0     0      0       0
 ---------------------------------------------------------------------------------
 (2) _ECCP3_Initialize                                     0     0      0       0
 ---------------------------------------------------------------------------------
 (1) _LED_output                                           3     3      0     133
                                              0 BANK0      3     3      0
                             _DRL_ON
                          _LoBeam_ON
                             _POS_ON
 ---------------------------------------------------------------------------------
 (1) _LoBeam_ON                                            0     0      0       0
 ---------------------------------------------------------------------------------
 (2) _DRL_ON                                               0     0      0       0
 ---------------------------------------------------------------------------------
 (1) _Exception_handling                                   0     0      0       0
                             _POS_ON
 ---------------------------------------------------------------------------------
 (1) _POS_ON                                               0     0      0       0
 ---------------------------------------------------------------------------------
 Estimated maximum stack depth 2
 ---------------------------------------------------------------------------------
 (Depth) Function   	        Calls       Base Space   Used Autos Params    Refs
 ---------------------------------------------------------------------------------
 (4) _INTERRUPT_InterruptManager                           0     0      0     167
                   _ECCP3_CaptureISR
                           _TMR0_ISR
 ---------------------------------------------------------------------------------
 (5) _TMR0_ISR                                             0     0      0       0
                      _TMR0_CallBack
 ---------------------------------------------------------------------------------
 (6) _TMR0_CallBack                                        0     0      0       0
                                NULL *
       _TMR0_DefaultInterruptHandler *
                   _TMR0_EvenHandler *
 ---------------------------------------------------------------------------------
 (7) _TMR0_EvenHandler                                     1     1      0       0
                                              0 COMMON     1     1      0
 ---------------------------------------------------------------------------------
 (7) _TMR0_DefaultInterruptHandler                         0     0      0       0
 ---------------------------------------------------------------------------------
 (7) NULL(Fake)                                            0     0      0       0
 ---------------------------------------------------------------------------------
 (5) _ECCP3_CaptureISR                                     2     2      0     167
                                              4 COMMON     2     2      0
                     _ECCP3_CallBack
 ---------------------------------------------------------------------------------
 (6) _ECCP3_CallBack                                       4     2      2     120
                                              0 COMMON     4     2      2
 ---------------------------------------------------------------------------------
 Estimated maximum stack depth 7
 ---------------------------------------------------------------------------------

 Call Graph Graphs:

 _main (ROOT)
   _Exception_handling
     _POS_ON
   _LED_output
     _DRL_ON
     _LoBeam_ON
     _POS_ON
   _LoBeam_ON
   _POS_ON
   _SYSTEM_Initialize
     _ECCP3_Initialize
     _EPWM1_Initialize
     _OSCILLATOR_Initialize
     _PIN_MANAGER_Initialize
     _TMR0_Initialize
       _TMR0_SetInterruptHandler
     _TMR1_Initialize
     _TMR2_Initialize
     _WDT_Initialize
   _TMR0_SetInterruptHandler
   _check_input
   _getFrameData

 _INTERRUPT_InterruptManager (ROOT)
   _ECCP3_CaptureISR
     _ECCP3_CallBack
   _TMR0_ISR
     _TMR0_CallBack
       NULL(Fake) *
       _TMR0_DefaultInterruptHandler *
       _TMR0_EvenHandler *

 Address spaces:
Name               Size   Autos  Total    Cost      Usage
BIGRAM             1F0      0       0       0        0.0%
EEDATA             100      0       0       0        0.0%
NULL                 0      0       0       0        0.0%
CODE                 0      0       0       0        0.0%
BITCOMMON            E      0       0       1        0.0%
BITSFR0              0      0       0       1        0.0%
SFR0                 0      0       0       1        0.0%
COMMON               E      6       C       2       85.7%
BITSFR1              0      0       0       2        0.0%
SFR1                 0      0       0       2        0.0%
BITSFR2              0      0       0       3        0.0%
SFR2                 0      0       0       3        0.0%
STACK                0      0       0       3        0.0%
BITSFR3              0      0       0       4        0.0%
SFR3                 0      0       0       4        0.0%
ABS                  0      0      74       4        0.0%
BITBANK0            50      0       0       5        0.0%
BITSFR4              0      0       0       5        0.0%
SFR4                 0      0       0       5        0.0%
BANK0               50      3      28       6       50.0%
BITSFR5              0      0       0       6        0.0%
SFR5                 0      0       0       6        0.0%
BITBANK1            50      0       0       7        0.0%
BITSFR6              0      0       0       7        0.0%
SFR6                 0      0       0       7        0.0%
BANK1               50      0      40       8       80.0%
BITSFR7              0      0       0       8        0.0%
SFR7                 0      0       0       8        0.0%
BITBANK2            50      0       0       9        0.0%
BITSFR8              0      0       0       9        0.0%
SFR8                 0      0       0       9        0.0%
BANK2               50      0       0      10        0.0%
BITSFR9              0      0       0      10        0.0%
SFR9                 0      0       0      10        0.0%
BITBANK3            50      0       0      11        0.0%
BITSFR10             0      0       0      11        0.0%
SFR10                0      0       0      11        0.0%
BANK3               50      0       0      12        0.0%
BITSFR11             0      0       0      12        0.0%
SFR11                0      0       0      12        0.0%
BITBANK4            50      0       0      13        0.0%
BITSFR12             0      0       0      13        0.0%
SFR12                0      0       0      13        0.0%
BANK4               50      0       0      14        0.0%
BITSFR13             0      0       0      14        0.0%
SFR13                0      0       0      14        0.0%
BITBANK5            50      0       0      15        0.0%
BITSFR14             0      0       0      15        0.0%
SFR14                0      0       0      15        0.0%
BANK5               50      0       0      16        0.0%
BITSFR15             0      0       0      16        0.0%
SFR15                0      0       0      16        0.0%
BITBANK6            10      0       0      17        0.0%
BITSFR16             0      0       0      17        0.0%
SFR16                0      0       0      17        0.0%
BANK6               10      0       0      18        0.0%
BITSFR17             0      0       0      18        0.0%
SFR17                0      0       0      18        0.0%
BITSFR18             0      0       0      19        0.0%
SFR18                0      0       0      19        0.0%
DATA                 0      0      74      19        0.0%
BITSFR19             0      0       0      20        0.0%
SFR19                0      0       0      20        0.0%
BITSFR20             0      0       0      21        0.0%
SFR20                0      0       0      21        0.0%
BITSFR21             0      0       0      22        0.0%
SFR21                0      0       0      22        0.0%
BITSFR22             0      0       0      23        0.0%
SFR22                0      0       0      23        0.0%
BITSFR23             0      0       0      24        0.0%
SFR23                0      0       0      24        0.0%
BITSFR24             0      0       0      25        0.0%
SFR24                0      0       0      25        0.0%
BITSFR25             0      0       0      26        0.0%
SFR25                0      0       0      26        0.0%
BITSFR26             0      0       0      27        0.0%
SFR26                0      0       0      27        0.0%
BITSFR27             0      0       0      28        0.0%
SFR27                0      0       0      28        0.0%
BITSFR28             0      0       0      29        0.0%
SFR28                0      0       0      29        0.0%
BITSFR29             0      0       0      30        0.0%
SFR29                0      0       0      30        0.0%
BITSFR30             0      0       0      31        0.0%
SFR30                0      0       0      31        0.0%
BITSFR31             0      0       0      32        0.0%
SFR31                0      0       0      32        0.0%


Microchip Technology PIC Macro Assembler V2.46 build 20240104201356 
Symbol Table                                                                                   Tue Nov 04 14:25:49 2025

                                      _D2 0073                                        _D3 0041  
                                      l32 04C0                                        l35 04C5  
                                      l29 0448                                        l38 04F9  
                                      _CS 00A0                                        l78 049F  
                         _timer0ReloadVal 0075                                       l301 04EA  
                                     l310 0422                                       l302 04EC  
                                     l311 0425                                       l303 04EF  
                                     l135 0412                                       l320 0356  
                                     l400 0127                                       l313 0427  
                                     l321 0351                                       l402 0129  
                                     l331 0375                                       l411 0153  
                                     l316 042F                                       l332 0372  
                                     l420 0165                                       l412 014F  
                                     l309 0420                                       l325 035E  
                                     l341 0383                                       l405 013F  
                                     l229 04CF                                       l157 0474  
                                     l414 0151                                       l406 013B  
                                     l350 01C4                                       l319 036A  
                                     l431 01A0                                       l423 017A  
                                     l344 04F0                                       l336 037D  
                                     l328 0364                                       l432 019D  
                                     l424 0177                                       l408 013D  
                                     l360 007D                                       l417 0167  
                                     l249 04AC                                       l346 04F5  
                                     l426 01B3                                       l418 0163  
                                     l362 007F                                       l354 0067  
                                     l450 03EC                                       l442 03D0  
                                     l339 0380                                       l427 018D  
                                     l371 00B1                                       l179 04E9  
                                     l195 04D7                                       l451 03ED  
                                     l443 03D1                                       l436 01B0  
                                     l428 018A                                       l380 00C3  
                                     l372 00AA                                       l356 006C  
                                     l452 03F3                                       l444 03D7  
                                     l365 009A                                       l357 006A  
                                     l445 03D8                                       l374 00AC  
                                     l366 0093                                       l454 03F4  
                                     l446 03DE                                       l534 031A  
                                     l391 0104                                       l383 00DB  
                                     l359 0083                                       l447 03DF  
                                     l392 0101                                       l384 00D5  
                                     l368 0095                                       l448 03E5  
                                     l377 00C5                                       l449 03E6  
                                     l378 00C1                                       l395 0117  
                                     l387 00F1                                       l396 0114  
                                     l388 00EB                                       l476 0301  
                                     l399 012B                                       _PR2 001B  
                         _timer1ReloadVal 0035                           _TMR2_Initialize 04D0  
                                     wreg 0009                  __end_of_ECCP3_Initialize 04D0  
                             ?_LED_output 0076                                      l2211 03F5  
                                    l2301 034D                                      l2221 0401  
                                    l2213 03F8                                      l2311 036E  
                                    l2303 0353                                      l2231 040E  
                                    l2223 0403                                      l2215 03FA  
                                    l2305 035A                                      l2233 0410  
                                    l2225 0405                                      l2217 03FC  
                                    l2209 04E4                                      l2241 04F6  
                                    l2321 0430                                      l2331 042E  
                                    l2323 0413                                      l2315 0379  
                                    l2307 0360                                      l2403 00F5  
                                    l2251 04A8                                      l2243 04A0  
                                    l2235 04BA                                      l2227 0408  
                                    l2219 03FF                                      l2325 041A  
                                    l2309 0366                                      l2501 01B5  
                                    l2413 0108                                      l2405 00F9  
                                    l2333 0046                                      l2261 04CA  
                                    l2253 04A9                                      l2245 04A3  
                                    l2237 04BD                                      l2229 040C  
                                    l2327 0428                                      l2503 01BA  
                                    l2431 012F                                      l2423 011B  
                                    l2415 010C                                      l2407 00FD  
                                    l2351 0071                                      l2343 005B  
                                    l2335 004D                                      l2263 04CB  
                                    l2255 04AA                                      l2247 04A4  
                                    l2239 04BE                                      l2271 04D4  
                                    l2511 03CA                                      l2329 042B  
                                    l2505 01BE                                      l2441 0147  
                                    l2433 0133                                      l2425 011F  
                                    l2417 0110                                      l2361 008B  
                                    l2353 0075                                      l2265 04CD  
                                    l2257 04C6                                      l2249 04A6  
                                    l2281 0498                                      l2273 04D5  
                                    l2521 03EA                                      l2513 03CE  
                                    l2601 0337                                      l2451 015F  
                                    l2443 014B                                      l2435 0137  
                                    l2427 0123                                      l2371 00A6  
                                    l2363 008F                                      l2355 0079  
                                    l2347 0062                                      l2339 0054  
                                    l2259 04C9                                      l2291 046C  
                                    l2283 0461                                      l2275 0493  
                                    l2267 04D0                                      l2523 03F1  
                                    l2515 03D5                                      l2507 03C4  
                                    l2531 029F                                      l2603 0339  
                                    l2373 00AD                                      l2365 0096  
                                    l2357 0080                                      l2349 0063  
                                    l2293 046D                                      l2285 0466  
                                    l2277 0496                                      l2269 04D3  
                                    l2517 03DC                                      l2509 03C9  
                                    l2533 02A1                                      l2525 0291  
                                    l2605 033A                                      l2295 04F2  
                                    l2455 016B                                      l2447 0157  
                                    l2439 0143                                      l2383 00C9  
                                    l2375 00B5                                      l2367 009E  
                                    l2359 0087                                      l2287 0469  
                                    l2279 0497                                      l2519 03E3  
                                    l2551 02C5                                      l2543 02B1  
                                    l2535 02A4                                      l2527 0297  
                                    l2607 033D                                      l2297 0343  
                                    l2465 017E                                      l2457 016F  
                                    l2449 015B                                      l2393 00DF  
                                    l2385 00CD                                      l2377 00B9  
                                    l2369 00A2                                      l2289 046B  
                                    l2561 02DB                                      l2553 02CA  
                                    l2545 02B6                                      l2537 02A6  
                                    l2529 0299                                      l2299 0349  
                                    l2475 0191                                      l2467 0182  
                                    l2459 0173                                      l2395 00E3  
                                    l2387 00D1                                      l2379 00BD  
                                    l2555 02CF                                      l2547 02BB  
                                    l2539 02AC                                      l2571 0302  
                                    l2485 01A4                                      l2477 0195  
                                    l2469 0186                                      l2397 00E7  
                                    l2389 00D7                                      l2557 02D4  
                                    l2549 02C0                                      l2581 0313  
                                    l2573 030D                                      l2487 01A8  
                                    l2479 0199                                      l2399 00ED  
                                    l2495 01B3                                      l2559 02D9  
                                    l2591 0325                                      l2583 0318  
                                    l2575 030F                                      l2489 01AC  
                                    l2569 02DE                                      l2593 032B  
                                    l2585 031C                                      l2577 0311  
                                    l2595 0330                                      l2587 031F  
                                    l2579 0312                                      l2597 0332  
                                    l2589 0322                                      l2599 0336  
                                    u3000 0182                                      u3001 0181  
                                    u3010 0186                                      u3011 0185  
                                    u3100 01B0                                      u3020 018A  
                                    u3101 01AF                                      u3021 0189  
                                    _LATA 010C                                      u3110 01C4  
                                    u3030 0191                                      u2310 04C5  
                                    _LATB 010D                                      u3111 01C3  
                                    u3031 0190                                      u2311 04C4  
                                    _LATC 010E                                      u2400 037D  
                                    u2320 0349                                      u3040 0195  
                                    u3120 03CE                                      u3200 02AC  
                                    u2401 037C                                      u2321 0348  
                                    u3041 0194                                      u3121 03CD  
                                    u3201 02AB                                      _LATE 0110  
                                    u2410 041A                                      u2330 034D  
                                    u3050 0199                                      u3130 03D5  
                                    u3210 0318                                      u2411 0419  
                                    u2331 034C                                      u3051 0198  
                                    u3131 03D4                                      u3211 0317  
                                    u2420 0420                                      u2340 0351  
                                    u3060 019D                                      u2500 007D  
                                    u3140 03DC                                      u3220 032B  
                                    u2421 041F                                      u2341 0350  
                                    u3061 019C                                      u2501 007C  
                                    u3141 03DB                                      u3221 032A  
                                    u2350 035A                                      u3070 01A4  
                                    u2510 0087                                      u2430 0053  
                                    u3150 03E3                                      u3230 0330  
                                    u2351 0359                                      u3071 01A3  
                                    u2511 0086                                      u2431 0052  
                                    u3151 03E2                                      u3231 032F  
                                    u2360 035E                                      u3080 01A8  
                                    u2600 00B9                                      u2520 008B  
                                    u2440 005A                                      u3160 03EA  
                                    u2361 035D                                      u3081 01A7  
                                    u2601 00B8                                      u2521 008A  
                                    u2441 0059                                      u3161 03E9  
                                    u2370 036E                                      u3090 01AC  
                                    u2610 00BD                                      u2530 008F  
                                    u2450 0061                                      u3170 03F1  
                                    u2371 036D                                      u3091 01AB  
                                    u2611 00BC                                      u2531 008E  
                                    u2451 0060                                      u3171 03F0  
                                    u2380 0372                                      u2700 00EB  
                                    u2620 00C1                                      u2540 0093  
                                    u2460 0067                                      u3180 0297  
                                    u2381 0371                                      u2701 00EA  
                                    u2621 00C0                                      u2541 0092  
                                    u2461 0066                                      u3181 0296  
                                    u2390 0379                                      u2710 00F5  
                                    u2630 00C9                                      u2550 009E  
                                    u2470 0071                                      u3190 029F  
                                    u2391 0378                                      u2711 00F4  
                                    u2631 00C8                                      u2551 009D  
                                    u2471 0070                                      u3191 029E  
                                    u2800 011F                                      u2720 00F9  
                                    u2640 00CD                                      u2560 00A2  
                                    u2480 0075                                      u2801 011E  
                                    u2721 00F8                                      u2641 00CC  
                                    u2561 00A1                                      u2481 0074  
                                    u2810 0123                                      u2730 00FD  
                                    u2650 00D1                                      u2570 00A6  
                                    u2490 0079                                      u2811 0122  
                                    u2731 00FC                                      u2651 00D0  
                                    u2571 00A5                                      u2491 0078  
                                    u2900 014F                                      u2820 0127  
                                    u2740 0101                                      u2660 00D5  
                                    u2580 00AA                                      u2901 014E  
                                    u2821 0126                                      u2741 0100  
                                    u2661 00D4                                      u2581 00A9  
                                    u2910 0157                                      u2830 012F  
                                    u2750 0108                                      u2670 00DF  
                                    u2590 00B5                                      u2911 0156  
                                    u2831 012E                                      u2751 0107  
                                    u2671 00DE                                      u2591 00B4  
                                    u2920 015B                                      u2840 0133  
                                    u2760 010C                                      u2680 00E3  
                                    u2921 015A                                      u2841 0132  
                                    u2761 010B                                      u2681 00E2  
                                    u2930 015F                                      u2850 0137  
                                    u2770 0110                                      u2690 00E7  
                                    u2931 015E                                      u2851 0136  
                                    u2771 010F                                      u2691 00E6  
                                    u2940 0163                                      u2860 013B  
                                    u2780 0114                                      u2941 0162  
                                    u2861 013A                                      u2781 0113  
                                    u2950 016B                                      u2870 0143  
                                    u2790 011B                                      u2951 016A  
                                    u2871 0142                                      u2791 011A  
                                    u2960 016F                                      u2880 0147  
                                    u2961 016E                                      u2881 0146  
                                    u2970 0173                                      u2890 014B  
                                    u2971 0172                                      u2891 014A  
                                    u2980 0177                                      i1l53 0012  
                                    u2981 0176                                      u2990 017E  
                                    u2991 017D                                      i1l58 0024  
                                    i1l59 0024                                      _PLLR 04D6  
                                    _TMR0 0015                                      _TMR2 001A  
                                    _WPUB 020D                                      _WPUE 0210  
                     ECCP3_CallBack@HI_us 0072                       ECCP3_CallBack@LO_us 003B  
                                    _main 0302                                      fsr0h 0005  
                                    fsr1h 0007                                      indf0 0000  
                                    fsr0l 0004                                      indf1 0001  
                                    fsr1l 0006                                      _step 0042  
                                    btemp 007E                       ECCP3_CallBack@fHead 0038  
                                    start 0026                   __end_of_TMR0_Initialize 0475  
          ??_TMR0_DefaultInterruptHandler 0076             __end_of_OSCILLATOR_Initialize 04C6  
                                   ?_main 0076                                     _T1CON 0018  
                                   _T2CON 001C                                     i1l232 0492  
                                   i1l500 0261                                     i1l172 0460  
                                   i1l502 01F6                                     i1l182 04FA  
                                   i1l504 021B                                     i1l176 04B9  
                                   i1l513 0235                                     i1l506 0220  
                                   i1l515 0253                                     i1l523 0290  
                                   i1l516 0245                                     i1l527 0483  
                __end_of_TMR0_EvenHandler 0484                                     _TMR1H 0017  
                                   _TMR1L 0016                                     _TRISA 008C  
                                   _TRISB 008D                                     _TRISC 008E  
                                   _TRISE 0090                 ?_TMR0_SetInterruptHandler 0045  
              __end_of_Exception_handling 0430                          __end_of_TMR0_ISR 0461  
                          _WDT_Initialize 04F6                   __end_of_TMR1_Initialize 04A0  
                                   pclath 000A                                     status 0003  
                                   wtemp0 007E              ECCP3_CallBack@pluse_width_HI 002D  
            ECCP3_CallBack@pluse_width_LO 002F                      __end_of_getFrameData 0302  
                         __initialization 0028                              __end_of_main 0343  
                 __end_of_TMR2_Initialize 04D8               ?_INTERRUPT_InterruptManager 0076  
                                  ??_main 0048           ECCP3_CallBack@falling_edge_time 0070  
                  __end_of_WDT_Initialize 04FA                                    _CCPR1H 0292  
                                  _CCPR3H 0312                                    _CCPR1L 0291  
                                  _CCPR3L 0311                                    _APFCON 011D  
                                  _ANSELA 018C                                    _ANSELB 018D  
                                  _BORCON 0116                                    _T1GCON 0019  
                                  u120_20 01CC                                    u120_21 01CB  
                                  i1l2161 000E                                    i1l2163 0016  
                                  i1l2165 001B                                    i1l2157 0006  
                                  i1l1711 0480                                    i1l2167 0020  
                                  i1l2159 000A                                    u121_20 01D8  
                                  u121_21 01D7                                    i1l1713 0482  
                                  i1l1801 04B4                                    i1l1811 01D9  
                                  i1l1803 01C5                                    i1l1707 0475  
                                  i1l1821 0218                                    i1l1813 01E3  
                                  i1l1805 01CC                                    i1l1709 047A  
                                  i1l1823 0222                                    i1l1831 022F  
                                  i1l1815 01EA                                    i1l1807 01D2  
                                  u130_20 0268                                    u122_20 01E3  
                                  u130_21 0267                                    i1l1841 025E  
                                  i1l1833 0237                                    i1l1825 0229  
                                  i1l1817 020E                                    u122_21 01E2  
                                  i1l1809 01D8                                    i1l1851 028E  
                                  i1l1835 0247                                    i1l1827 022B  
                                  i1l1819 0214                                    i1l1843 0262  
                                  i1l1845 0268                                    i1l1837 0257  
                                  i1l1829 022C                                    u122_25 01DF  
                                  i1l1847 027B                                    i1l1839 025D  
                                  u131_20 027B                                    u123_20 0214  
                                  _DRL_ON 0343                                    i1l1849 0282  
                                  u131_21 027A                                    u123_21 0213  
                                  i1l1881 0449                                    i1l1891 0486  
                                  i1l1883 044A                                    u131_25 0277  
                                  i1l1893 048B                                    i1l1885 045A  
                                  i1l1799 04AD                                    i1l1887 045D  
                                  u124_20 0220                                    u124_21 021F  
                                  i1l1889 0484                                    u125_20 0229  
                                  u117_20 0480                                    u141_20 045A  
                                  u125_21 0228                                    u117_21 047F  
                                  u141_21 0459                                    u126_20 0235  
                                  u126_21 0234                                    u119_20 04B4  
                                  u223_20 000A                                    u119_21 04B3  
                                  u223_21 0009                                    u127_24 023D  
                                  u127_25 023C                                    u224_20 000E  
                                  u224_21 000D                                    u128_24 024D  
                                  u128_25 024C                                    u129_20 025D  
                                  u225_20 0016                                    u129_21 025C  
                                  u225_21 0015                                    u226_20 001B  
                                  u226_21 001A                                    u227_20 0020  
                                  u227_21 001F                                    _OSCCON 0099  
                                  _WDTCON 0097                                    _POS_ON 04F0  
                             LED_output@i 0047                              _CCPTMRS0bits 029E  
          ECCP3_CallBack@rising_edge_time 002B                                    _csFlag 0040  
                        ?_TMR0_Initialize 0076                         ?_ECCP3_CaptureISR 0076  
                         ?_WDT_Initialize 0076                        ??_ECCP3_CaptureISR 007A  
                              _fException 003E                     __end_of_TMR0_CallBack 04BA  
TMR0_SetInterruptHandler@InterruptHandler 0045                     ECCP3_CallBack@diff_us 003A  
                        ?_TMR1_Initialize 0076                         _SYSTEM_Initialize 0430  
                 __end_of__initialization 0042                         __end_of_LoBeam_ON 04F0  
                      ?_SYSTEM_Initialize 0076                         ?_EPWM1_Initialize 0076  
                          __pcstackCOMMON 0076                              __pidataBANK1 0384  
                     ??_SYSTEM_Initialize 0047                                 ?_TMR0_ISR 0076  
                      ??_EPWM1_Initialize 0045                          ?_TMR2_Initialize 0076  
                          _OPTION_REGbits 0095                     TMR0_ISR@CountCallBack 0031  
                            ??_LED_output 0045                 __end_of_SYSTEM_Initialize 0449  
                       ?_ECCP3_Initialize 0076                                __pbssBANK0 0020  
                                 ?_DRL_ON 0076                        ??_ECCP3_Initialize 0045  
                                 ?_POS_ON 0076                                __pmaintext 0302  
        __end_of_TMR0_SetInterruptHandler 04EA                                ??_TMR0_ISR 0077  
                              __pintentry 0004                                   _CCP1CON 0293  
                                 _CCP3CON 0313                                   _ECCP1AS 0295  
                      __end_of_LED_output 01C5                              _getFrameData 0291  
                       ?_TMR0_EvenHandler 0076                                   _OSCTUNE 0098  
                                 _PWM1CON 0294                        ??_TMR0_EvenHandler 0076  
                      _Exception_handling 0413                                 _T10MS_CNT 003F  
                     ?_Exception_handling 0076                            _ECCP3_CallBack 01C5  
                                 __ptext1 0291                                   __ptext2 03C4  
                                 __ptext3 0430                                   __ptext4 04F6  
                                 __ptext5 04D0                                   __ptext6 0493  
                                 __ptext7 0461                                   __ptext8 04E4  
                                 __ptext9 03F5                                 _T1CONbits 0018  
                   _OSCILLATOR_Initialize 04BA                                 _T2CONbits 001C  
                           ??_check_input 0045                    ECCP3_CaptureISR@module 007A  
                ??_PIN_MANAGER_Initialize 0045                             _data_1byte_OK 0044  
                                 _rx_data 0074                      ??_Exception_handling 0045  
                                 clrloop0 04DF                      end_of_initialization 0042  
                                 init_ram 04D8                                   initloop 04D9  
                             _fException2 003D                    __end_of_ECCP3_CallBack 0291  
                  ECCP3_CallBack@data_cnt 0037                          ??_WDT_Initialize 0045  
                _TMR0_SetInterruptHandler 04E4                                 _PORTBbits 000D  
                     __end_of_check_input 03F5                            __end_of_DRL_ON 0384  
                          __end_of_POS_ON 04F6                                 _LoBeam_ON 04EA  
                         ?_ECCP3_CallBack 0076                    ?_OSCILLATOR_Initialize 0076  
                     start_initialization 0028                            LED_output@crc8 0046  
                                ??_DRL_ON 0045                                  ??_POS_ON 0045  
                              ?_LoBeam_ON 0076                                 _fFrame_OK 0043  
                             __pdataBANK1 00A0                                 _fLampSide 003C  
                             __pbssCOMMON 0070                               _check_input 03C4  
                               ___latbits 0002                             __pcstackBANK0 0045  
                   _TMR0_InterruptHandler 0033                    _PIN_MANAGER_Initialize 03F5  
            ??_INTERRUPT_InterruptManager 007C                             _TMR0_CallBack 04AD  
                       ??_TMR0_Initialize 0047                          _ECCP3_CaptureISR 0484  
                                _LATAbits 010C                                  _LATBbits 010D  
                                _LATCbits 010E                                 clear_ram0 04DE  
                                _PIE3bits 0093                ??_TMR0_SetInterruptHandler 0047  
                                _PIR1bits 0011                                  _PIR3bits 0013  
                             ??_LoBeam_ON 0045                                  _TMR0_ISR 0449  
                                _PSTR1CON 0296                         ??_TMR1_Initialize 0045  
                        _EPWM1_Initialize 04A0                            ?_TMR0_CallBack 0076  
                       ??_TMR2_Initialize 0045                          ??_ECCP3_CallBack 0078  
                        _ECCP3_Initialize 04C6                   ??_OSCILLATOR_Initialize 0045  
             ECCP3_CallBack@capturedValue 0076              ECCP3_CallBack@rise_edge_flag 0039  
                                _data_buf 0020                                  __ptext10 04BA  
                                __ptext11 04A0                                  __ptext20 04AD  
                                __ptext12 04C6                                  __ptext21 04FA  
                                __ptext13 0046                                _T1GCONbits 0019  
                                __ptext22 0475                                  __ptext14 04EA  
                                __ptext23 0484                                  __ptext15 0343  
                                __ptext24 01C5                                  __ptext16 0413  
                                __ptext17 04F0                                  __ptext19 0449  
                        _TMR0_EvenHandler 0475      __end_of_TMR0_DefaultInterruptHandler 04FB  
            _TMR0_DefaultInterruptHandler 04FA                                  int$flags 007E  
      __end_of_INTERRUPT_InterruptManager 0026                _INTERRUPT_InterruptManager 0004  
                           ?_getFrameData 0076                                _INTCONbits 000B  
                            ?_check_input 0076                           ??_TMR0_CallBack 0077  
                              _LED_output 0046                                  intlevel1 0000  
                 ?_PIN_MANAGER_Initialize 0076             ?_TMR0_DefaultInterruptHandler 0076  
                          ??_getFrameData 0045                  __end_of_ECCP3_CaptureISR 0493  
                              _OPTION_REG 0095                           _TMR0_Initialize 0461  
          __end_of_PIN_MANAGER_Initialize 0413                           _TMR1_Initialize 0493  
                __end_of_EPWM1_Initialize 04AD  
