

Microchip MPLAB XC8 Assembler V2.46 build 20240104201356 
                                                                                               Thu Oct 30 15:43:29 2025

Microchip MPLAB XC8 C Compiler v2.46 (Free license) build 20240104201356 Og1 
     1                           	processor	16F1936
     2                           	pagewidth 120
     3                           	opt	flic
     4                           	psect	idataBANK1,global,class=CODE,delta=2,noexec
     5                           	psect	cinit,global,class=CODE,merge=1,delta=2
     6                           	psect	bssCOMMON,global,class=COMMON,space=1,delta=1,noexec
     7                           	psect	bssBANK0,global,class=BANK0,space=1,delta=1,noexec
     8                           	psect	dataBANK1,global,class=BANK1,space=1,delta=1,noexec
     9                           	psect	inittext,global,class=CODE,delta=2
    10                           	psect	clrtext,global,class=CODE,delta=2
    11                           	psect	cstackCOMMON,global,class=COMMON,space=1,delta=1,noexec
    12                           	psect	cstackBANK0,global,class=BANK0,space=1,delta=1,noexec
    13                           	psect	maintext,global,class=CODE,merge=1,split=1,delta=2
    14                           	psect	text1,local,class=CODE,merge=1,delta=2
    15                           	psect	text2,local,class=CODE,merge=1,delta=2
    16                           	psect	text3,local,class=CODE,merge=1,delta=2
    17                           	psect	text4,local,class=CODE,merge=1,delta=2
    18                           	psect	text5,local,class=CODE,merge=1,delta=2
    19                           	psect	text6,local,class=CODE,merge=1,delta=2
    20                           	psect	text7,local,class=CODE,merge=1,delta=2
    21                           	psect	text8,local,class=CODE,merge=1,delta=2
    22                           	psect	text9,local,class=CODE,merge=1,delta=2
    23                           	psect	text10,local,class=CODE,merge=1,delta=2
    24                           	psect	text11,local,class=CODE,merge=1,delta=2
    25                           	psect	text12,local,class=CODE,merge=1,delta=2
    26                           	psect	text13,local,class=CODE,merge=1,delta=2
    27                           	psect	text14,local,class=CODE,merge=1,delta=2
    28                           	psect	text15,local,class=CODE,merge=1,delta=2
    29                           	psect	text16,local,class=CODE,merge=1,delta=2
    30                           	psect	text17,local,class=CODE,merge=1,delta=2
    31                           	psect	intentry,global,class=CODE,delta=2
    32                           	psect	text19,local,class=CODE,merge=1,delta=2
    33                           	psect	text20,local,class=CODE,merge=1,delta=2
    34                           	psect	text21,local,class=CODE,merge=1,delta=2
    35                           	psect	text22,local,class=CODE,merge=1,delta=2
    36                           	psect	text23,local,class=CODE,merge=1,delta=2
    37                           	psect	text24,local,class=CODE,merge=1,delta=2
    38                           	psect	config,global,abs,ovrld,class=CONFIG,space=4,delta=2,noexec
    39                           	dabs	1,0x7E,2
    40     0000                     
    41                           ; Version 2.20
    42                           ; Generated 12/02/2020 GMT
    43                           ; 
    44                           ; Copyright © 2020, Microchip Technology Inc. and its subsidiaries ("Microchip")
    45                           ; All rights reserved.
    46                           ; 
    47                           ; This software is developed by Microchip Technology Inc. and its subsidiaries ("Microch
      +                          ip").
    48                           ; 
    49                           ; Redistribution and use in source and binary forms, with or without modification, are
    50                           ; permitted provided that the following conditions are met:
    51                           ; 
    52                           ;     1. Redistributions of source code must retain the above copyright notice, this lis
      +                          t of
    53                           ;        conditions and the following disclaimer.
    54                           ; 
    55                           ;     2. Redistributions in binary form must reproduce the above copyright notice, this 
      +                          list
    56                           ;        of conditions and the following disclaimer in the documentation and/or other
    57                           ;        materials provided with the distribution.
    58                           ; 
    59                           ;     3. Microchip's name may not be used to endorse or promote products derived from th
      +                          is
    60                           ;        software without specific prior written permission.
    61                           ; 
    62                           ; THIS SOFTWARE IS PROVIDED BY MICROCHIP "AS IS" AND ANY EXPRESS OR IMPLIED WARRANTIES,
    63                           ; INCLUDING, BUT NOT LIMITED TO, THE IMPLIED WARRANTIES OF MERCHANTABILITY AND FITNESS F
      +                          OR
    64                           ; PURPOSE ARE DISCLAIMED.  IN NO EVENT SHALL MICROCHIP BE LIABLE FOR ANY DIRECT, INDIREC
      +                          T,
    65                           ; INCIDENTAL, SPECIAL, EXEMPLARY, OR CONSEQUENTIAL DAMAGES (INCLUDING BUT NOT LIMITED TO
    66                           ; PROCUREMENT OF SUBSTITUTE GOODS OR SERVICES; LOSS OF USE, DATA OR PROFITS; OR BUSINESS
    67                           ; INTERRUPTION) HOWSOEVER CAUSED AND ON ANY THEORY OF LIABILITY, WHETHER IN CONTRACT, ST
      +                          RICT
    68                           ; LIABILITY, OR TORT (INCLUDING NEGLIGENCE OR OTHERWISE) ARISING IN ANY WAY OUT OF THE U
      +                          SE OF
    69                           ; THIS SOFTWARE, EVEN IF ADVISED OF THE POSSIBILITY OF SUCH DAMAGE.
    70                           ; 
    71                           ; 
    72                           ; Code-generator required, PIC16F1936 Definitions
    73                           ; 
    74                           ; SFR Addresses
    75     0000                     	;# 
    76     0001                     	;# 
    77     0002                     	;# 
    78     0003                     	;# 
    79     0004                     	;# 
    80     0005                     	;# 
    81     0006                     	;# 
    82     0007                     	;# 
    83     0008                     	;# 
    84     0009                     	;# 
    85     000A                     	;# 
    86     000B                     	;# 
    87     000C                     	;# 
    88     000D                     	;# 
    89     000E                     	;# 
    90     0010                     	;# 
    91     0011                     	;# 
    92     0012                     	;# 
    93     0013                     	;# 
    94     0015                     	;# 
    95     0016                     	;# 
    96     0016                     	;# 
    97     0017                     	;# 
    98     0018                     	;# 
    99     0019                     	;# 
   100     001A                     	;# 
   101     001B                     	;# 
   102     001C                     	;# 
   103     001E                     	;# 
   104     001F                     	;# 
   105     008C                     	;# 
   106     008D                     	;# 
   107     008E                     	;# 
   108     0090                     	;# 
   109     0091                     	;# 
   110     0092                     	;# 
   111     0093                     	;# 
   112     0095                     	;# 
   113     0096                     	;# 
   114     0097                     	;# 
   115     0098                     	;# 
   116     0099                     	;# 
   117     009A                     	;# 
   118     009B                     	;# 
   119     009B                     	;# 
   120     009C                     	;# 
   121     009D                     	;# 
   122     009E                     	;# 
   123     010C                     	;# 
   124     010D                     	;# 
   125     010E                     	;# 
   126     0110                     	;# 
   127     0111                     	;# 
   128     0112                     	;# 
   129     0113                     	;# 
   130     0114                     	;# 
   131     0115                     	;# 
   132     0116                     	;# 
   133     0117                     	;# 
   134     0118                     	;# 
   135     0119                     	;# 
   136     011A                     	;# 
   137     011B                     	;# 
   138     011D                     	;# 
   139     018C                     	;# 
   140     018D                     	;# 
   141     0191                     	;# 
   142     0191                     	;# 
   143     0192                     	;# 
   144     0193                     	;# 
   145     0193                     	;# 
   146     0193                     	;# 
   147     0194                     	;# 
   148     0195                     	;# 
   149     0196                     	;# 
   150     0199                     	;# 
   151     019A                     	;# 
   152     019B                     	;# 
   153     019B                     	;# 
   154     019B                     	;# 
   155     019B                     	;# 
   156     019C                     	;# 
   157     019C                     	;# 
   158     019D                     	;# 
   159     019E                     	;# 
   160     019F                     	;# 
   161     020D                     	;# 
   162     0210                     	;# 
   163     0211                     	;# 
   164     0212                     	;# 
   165     0213                     	;# 
   166     0214                     	;# 
   167     0215                     	;# 
   168     0215                     	;# 
   169     0216                     	;# 
   170     0217                     	;# 
   171     0291                     	;# 
   172     0291                     	;# 
   173     0292                     	;# 
   174     0293                     	;# 
   175     0294                     	;# 
   176     0295                     	;# 
   177     0295                     	;# 
   178     0296                     	;# 
   179     0298                     	;# 
   180     0298                     	;# 
   181     0299                     	;# 
   182     029A                     	;# 
   183     029B                     	;# 
   184     029C                     	;# 
   185     029C                     	;# 
   186     029D                     	;# 
   187     029E                     	;# 
   188     029F                     	;# 
   189     0311                     	;# 
   190     0311                     	;# 
   191     0312                     	;# 
   192     0313                     	;# 
   193     0314                     	;# 
   194     0315                     	;# 
   195     0315                     	;# 
   196     0316                     	;# 
   197     0318                     	;# 
   198     0318                     	;# 
   199     0319                     	;# 
   200     031A                     	;# 
   201     031C                     	;# 
   202     031C                     	;# 
   203     031D                     	;# 
   204     031E                     	;# 
   205     0394                     	;# 
   206     0395                     	;# 
   207     0396                     	;# 
   208     0415                     	;# 
   209     0416                     	;# 
   210     0417                     	;# 
   211     041C                     	;# 
   212     041D                     	;# 
   213     041E                     	;# 
   214     0791                     	;# 
   215     0792                     	;# 
   216     0793                     	;# 
   217     0794                     	;# 
   218     0795                     	;# 
   219     0798                     	;# 
   220     0799                     	;# 
   221     07A0                     	;# 
   222     07A1                     	;# 
   223     07A3                     	;# 
   224     07A4                     	;# 
   225     07A6                     	;# 
   226     07A7                     	;# 
   227     07A9                     	;# 
   228     07AA                     	;# 
   229     0FE4                     	;# 
   230     0FE5                     	;# 
   231     0FE6                     	;# 
   232     0FE7                     	;# 
   233     0FE8                     	;# 
   234     0FE9                     	;# 
   235     0FEA                     	;# 
   236     0FEB                     	;# 
   237     0FED                     	;# 
   238     0FEE                     	;# 
   239     0FEF                     	;# 
   240     0000                     	;# 
   241     0001                     	;# 
   242     0002                     	;# 
   243     0003                     	;# 
   244     0004                     	;# 
   245     0005                     	;# 
   246     0006                     	;# 
   247     0007                     	;# 
   248     0008                     	;# 
   249     0009                     	;# 
   250     000A                     	;# 
   251     000B                     	;# 
   252     000C                     	;# 
   253     000D                     	;# 
   254     000E                     	;# 
   255     0010                     	;# 
   256     0011                     	;# 
   257     0012                     	;# 
   258     0013                     	;# 
   259     0015                     	;# 
   260     0016                     	;# 
   261     0016                     	;# 
   262     0017                     	;# 
   263     0018                     	;# 
   264     0019                     	;# 
   265     001A                     	;# 
   266     001B                     	;# 
   267     001C                     	;# 
   268     001E                     	;# 
   269     001F                     	;# 
   270     008C                     	;# 
   271     008D                     	;# 
   272     008E                     	;# 
   273     0090                     	;# 
   274     0091                     	;# 
   275     0092                     	;# 
   276     0093                     	;# 
   277     0095                     	;# 
   278     0096                     	;# 
   279     0097                     	;# 
   280     0098                     	;# 
   281     0099                     	;# 
   282     009A                     	;# 
   283     009B                     	;# 
   284     009B                     	;# 
   285     009C                     	;# 
   286     009D                     	;# 
   287     009E                     	;# 
   288     010C                     	;# 
   289     010D                     	;# 
   290     010E                     	;# 
   291     0110                     	;# 
   292     0111                     	;# 
   293     0112                     	;# 
   294     0113                     	;# 
   295     0114                     	;# 
   296     0115                     	;# 
   297     0116                     	;# 
   298     0117                     	;# 
   299     0118                     	;# 
   300     0119                     	;# 
   301     011A                     	;# 
   302     011B                     	;# 
   303     011D                     	;# 
   304     018C                     	;# 
   305     018D                     	;# 
   306     0191                     	;# 
   307     0191                     	;# 
   308     0192                     	;# 
   309     0193                     	;# 
   310     0193                     	;# 
   311     0193                     	;# 
   312     0194                     	;# 
   313     0195                     	;# 
   314     0196                     	;# 
   315     0199                     	;# 
   316     019A                     	;# 
   317     019B                     	;# 
   318     019B                     	;# 
   319     019B                     	;# 
   320     019B                     	;# 
   321     019C                     	;# 
   322     019C                     	;# 
   323     019D                     	;# 
   324     019E                     	;# 
   325     019F                     	;# 
   326     020D                     	;# 
   327     0210                     	;# 
   328     0211                     	;# 
   329     0212                     	;# 
   330     0213                     	;# 
   331     0214                     	;# 
   332     0215                     	;# 
   333     0215                     	;# 
   334     0216                     	;# 
   335     0217                     	;# 
   336     0291                     	;# 
   337     0291                     	;# 
   338     0292                     	;# 
   339     0293                     	;# 
   340     0294                     	;# 
   341     0295                     	;# 
   342     0295                     	;# 
   343     0296                     	;# 
   344     0298                     	;# 
   345     0298                     	;# 
   346     0299                     	;# 
   347     029A                     	;# 
   348     029B                     	;# 
   349     029C                     	;# 
   350     029C                     	;# 
   351     029D                     	;# 
   352     029E                     	;# 
   353     029F                     	;# 
   354     0311                     	;# 
   355     0311                     	;# 
   356     0312                     	;# 
   357     0313                     	;# 
   358     0314                     	;# 
   359     0315                     	;# 
   360     0315                     	;# 
   361     0316                     	;# 
   362     0318                     	;# 
   363     0318                     	;# 
   364     0319                     	;# 
   365     031A                     	;# 
   366     031C                     	;# 
   367     031C                     	;# 
   368     031D                     	;# 
   369     031E                     	;# 
   370     0394                     	;# 
   371     0395                     	;# 
   372     0396                     	;# 
   373     0415                     	;# 
   374     0416                     	;# 
   375     0417                     	;# 
   376     041C                     	;# 
   377     041D                     	;# 
   378     041E                     	;# 
   379     0791                     	;# 
   380     0792                     	;# 
   381     0793                     	;# 
   382     0794                     	;# 
   383     0795                     	;# 
   384     0798                     	;# 
   385     0799                     	;# 
   386     07A0                     	;# 
   387     07A1                     	;# 
   388     07A3                     	;# 
   389     07A4                     	;# 
   390     07A6                     	;# 
   391     07A7                     	;# 
   392     07A9                     	;# 
   393     07AA                     	;# 
   394     0FE4                     	;# 
   395     0FE5                     	;# 
   396     0FE6                     	;# 
   397     0FE7                     	;# 
   398     0FE8                     	;# 
   399     0FE9                     	;# 
   400     0FEA                     	;# 
   401     0FEB                     	;# 
   402     0FED                     	;# 
   403     0FEE                     	;# 
   404     0FEF                     	;# 
   405     0000                     	;# 
   406     0001                     	;# 
   407     0002                     	;# 
   408     0003                     	;# 
   409     0004                     	;# 
   410     0005                     	;# 
   411     0006                     	;# 
   412     0007                     	;# 
   413     0008                     	;# 
   414     0009                     	;# 
   415     000A                     	;# 
   416     000B                     	;# 
   417     000C                     	;# 
   418     000D                     	;# 
   419     000E                     	;# 
   420     0010                     	;# 
   421     0011                     	;# 
   422     0012                     	;# 
   423     0013                     	;# 
   424     0015                     	;# 
   425     0016                     	;# 
   426     0016                     	;# 
   427     0017                     	;# 
   428     0018                     	;# 
   429     0019                     	;# 
   430     001A                     	;# 
   431     001B                     	;# 
   432     001C                     	;# 
   433     001E                     	;# 
   434     001F                     	;# 
   435     008C                     	;# 
   436     008D                     	;# 
   437     008E                     	;# 
   438     0090                     	;# 
   439     0091                     	;# 
   440     0092                     	;# 
   441     0093                     	;# 
   442     0095                     	;# 
   443     0096                     	;# 
   444     0097                     	;# 
   445     0098                     	;# 
   446     0099                     	;# 
   447     009A                     	;# 
   448     009B                     	;# 
   449     009B                     	;# 
   450     009C                     	;# 
   451     009D                     	;# 
   452     009E                     	;# 
   453     010C                     	;# 
   454     010D                     	;# 
   455     010E                     	;# 
   456     0110                     	;# 
   457     0111                     	;# 
   458     0112                     	;# 
   459     0113                     	;# 
   460     0114                     	;# 
   461     0115                     	;# 
   462     0116                     	;# 
   463     0117                     	;# 
   464     0118                     	;# 
   465     0119                     	;# 
   466     011A                     	;# 
   467     011B                     	;# 
   468     011D                     	;# 
   469     018C                     	;# 
   470     018D                     	;# 
   471     0191                     	;# 
   472     0191                     	;# 
   473     0192                     	;# 
   474     0193                     	;# 
   475     0193                     	;# 
   476     0193                     	;# 
   477     0194                     	;# 
   478     0195                     	;# 
   479     0196                     	;# 
   480     0199                     	;# 
   481     019A                     	;# 
   482     019B                     	;# 
   483     019B                     	;# 
   484     019B                     	;# 
   485     019B                     	;# 
   486     019C                     	;# 
   487     019C                     	;# 
   488     019D                     	;# 
   489     019E                     	;# 
   490     019F                     	;# 
   491     020D                     	;# 
   492     0210                     	;# 
   493     0211                     	;# 
   494     0212                     	;# 
   495     0213                     	;# 
   496     0214                     	;# 
   497     0215                     	;# 
   498     0215                     	;# 
   499     0216                     	;# 
   500     0217                     	;# 
   501     0291                     	;# 
   502     0291                     	;# 
   503     0292                     	;# 
   504     0293                     	;# 
   505     0294                     	;# 
   506     0295                     	;# 
   507     0295                     	;# 
   508     0296                     	;# 
   509     0298                     	;# 
   510     0298                     	;# 
   511     0299                     	;# 
   512     029A                     	;# 
   513     029B                     	;# 
   514     029C                     	;# 
   515     029C                     	;# 
   516     029D                     	;# 
   517     029E                     	;# 
   518     029F                     	;# 
   519     0311                     	;# 
   520     0311                     	;# 
   521     0312                     	;# 
   522     0313                     	;# 
   523     0314                     	;# 
   524     0315                     	;# 
   525     0315                     	;# 
   526     0316                     	;# 
   527     0318                     	;# 
   528     0318                     	;# 
   529     0319                     	;# 
   530     031A                     	;# 
   531     031C                     	;# 
   532     031C                     	;# 
   533     031D                     	;# 
   534     031E                     	;# 
   535     0394                     	;# 
   536     0395                     	;# 
   537     0396                     	;# 
   538     0415                     	;# 
   539     0416                     	;# 
   540     0417                     	;# 
   541     041C                     	;# 
   542     041D                     	;# 
   543     041E                     	;# 
   544     0791                     	;# 
   545     0792                     	;# 
   546     0793                     	;# 
   547     0794                     	;# 
   548     0795                     	;# 
   549     0798                     	;# 
   550     0799                     	;# 
   551     07A0                     	;# 
   552     07A1                     	;# 
   553     07A3                     	;# 
   554     07A4                     	;# 
   555     07A6                     	;# 
   556     07A7                     	;# 
   557     07A9                     	;# 
   558     07AA                     	;# 
   559     0FE4                     	;# 
   560     0FE5                     	;# 
   561     0FE6                     	;# 
   562     0FE7                     	;# 
   563     0FE8                     	;# 
   564     0FE9                     	;# 
   565     0FEA                     	;# 
   566     0FEB                     	;# 
   567     0FED                     	;# 
   568     0FEE                     	;# 
   569     0FEF                     	;# 
   570     0000                     	;# 
   571     0001                     	;# 
   572     0002                     	;# 
   573     0003                     	;# 
   574     0004                     	;# 
   575     0005                     	;# 
   576     0006                     	;# 
   577     0007                     	;# 
   578     0008                     	;# 
   579     0009                     	;# 
   580     000A                     	;# 
   581     000B                     	;# 
   582     000C                     	;# 
   583     000D                     	;# 
   584     000E                     	;# 
   585     0010                     	;# 
   586     0011                     	;# 
   587     0012                     	;# 
   588     0013                     	;# 
   589     0015                     	;# 
   590     0016                     	;# 
   591     0016                     	;# 
   592     0017                     	;# 
   593     0018                     	;# 
   594     0019                     	;# 
   595     001A                     	;# 
   596     001B                     	;# 
   597     001C                     	;# 
   598     001E                     	;# 
   599     001F                     	;# 
   600     008C                     	;# 
   601     008D                     	;# 
   602     008E                     	;# 
   603     0090                     	;# 
   604     0091                     	;# 
   605     0092                     	;# 
   606     0093                     	;# 
   607     0095                     	;# 
   608     0096                     	;# 
   609     0097                     	;# 
   610     0098                     	;# 
   611     0099                     	;# 
   612     009A                     	;# 
   613     009B                     	;# 
   614     009B                     	;# 
   615     009C                     	;# 
   616     009D                     	;# 
   617     009E                     	;# 
   618     010C                     	;# 
   619     010D                     	;# 
   620     010E                     	;# 
   621     0110                     	;# 
   622     0111                     	;# 
   623     0112                     	;# 
   624     0113                     	;# 
   625     0114                     	;# 
   626     0115                     	;# 
   627     0116                     	;# 
   628     0117                     	;# 
   629     0118                     	;# 
   630     0119                     	;# 
   631     011A                     	;# 
   632     011B                     	;# 
   633     011D                     	;# 
   634     018C                     	;# 
   635     018D                     	;# 
   636     0191                     	;# 
   637     0191                     	;# 
   638     0192                     	;# 
   639     0193                     	;# 
   640     0193                     	;# 
   641     0193                     	;# 
   642     0194                     	;# 
   643     0195                     	;# 
   644     0196                     	;# 
   645     0199                     	;# 
   646     019A                     	;# 
   647     019B                     	;# 
   648     019B                     	;# 
   649     019B                     	;# 
   650     019B                     	;# 
   651     019C                     	;# 
   652     019C                     	;# 
   653     019D                     	;# 
   654     019E                     	;# 
   655     019F                     	;# 
   656     020D                     	;# 
   657     0210                     	;# 
   658     0211                     	;# 
   659     0212                     	;# 
   660     0213                     	;# 
   661     0214                     	;# 
   662     0215                     	;# 
   663     0215                     	;# 
   664     0216                     	;# 
   665     0217                     	;# 
   666     0291                     	;# 
   667     0291                     	;# 
   668     0292                     	;# 
   669     0293                     	;# 
   670     0294                     	;# 
   671     0295                     	;# 
   672     0295                     	;# 
   673     0296                     	;# 
   674     0298                     	;# 
   675     0298                     	;# 
   676     0299                     	;# 
   677     029A                     	;# 
   678     029B                     	;# 
   679     029C                     	;# 
   680     029C                     	;# 
   681     029D                     	;# 
   682     029E                     	;# 
   683     029F                     	;# 
   684     0311                     	;# 
   685     0311                     	;# 
   686     0312                     	;# 
   687     0313                     	;# 
   688     0314                     	;# 
   689     0315                     	;# 
   690     0315                     	;# 
   691     0316                     	;# 
   692     0318                     	;# 
   693     0318                     	;# 
   694     0319                     	;# 
   695     031A                     	;# 
   696     031C                     	;# 
   697     031C                     	;# 
   698     031D                     	;# 
   699     031E                     	;# 
   700     0394                     	;# 
   701     0395                     	;# 
   702     0396                     	;# 
   703     0415                     	;# 
   704     0416                     	;# 
   705     0417                     	;# 
   706     041C                     	;# 
   707     041D                     	;# 
   708     041E                     	;# 
   709     0791                     	;# 
   710     0792                     	;# 
   711     0793                     	;# 
   712     0794                     	;# 
   713     0795                     	;# 
   714     0798                     	;# 
   715     0799                     	;# 
   716     07A0                     	;# 
   717     07A1                     	;# 
   718     07A3                     	;# 
   719     07A4                     	;# 
   720     07A6                     	;# 
   721     07A7                     	;# 
   722     07A9                     	;# 
   723     07AA                     	;# 
   724     0FE4                     	;# 
   725     0FE5                     	;# 
   726     0FE6                     	;# 
   727     0FE7                     	;# 
   728     0FE8                     	;# 
   729     0FE9                     	;# 
   730     0FEA                     	;# 
   731     0FEB                     	;# 
   732     0FED                     	;# 
   733     0FEE                     	;# 
   734     0FEF                     	;# 
   735     0000                     	;# 
   736     0001                     	;# 
   737     0002                     	;# 
   738     0003                     	;# 
   739     0004                     	;# 
   740     0005                     	;# 
   741     0006                     	;# 
   742     0007                     	;# 
   743     0008                     	;# 
   744     0009                     	;# 
   745     000A                     	;# 
   746     000B                     	;# 
   747     000C                     	;# 
   748     000D                     	;# 
   749     000E                     	;# 
   750     0010                     	;# 
   751     0011                     	;# 
   752     0012                     	;# 
   753     0013                     	;# 
   754     0015                     	;# 
   755     0016                     	;# 
   756     0016                     	;# 
   757     0017                     	;# 
   758     0018                     	;# 
   759     0019                     	;# 
   760     001A                     	;# 
   761     001B                     	;# 
   762     001C                     	;# 
   763     001E                     	;# 
   764     001F                     	;# 
   765     008C                     	;# 
   766     008D                     	;# 
   767     008E                     	;# 
   768     0090                     	;# 
   769     0091                     	;# 
   770     0092                     	;# 
   771     0093                     	;# 
   772     0095                     	;# 
   773     0096                     	;# 
   774     0097                     	;# 
   775     0098                     	;# 
   776     0099                     	;# 
   777     009A                     	;# 
   778     009B                     	;# 
   779     009B                     	;# 
   780     009C                     	;# 
   781     009D                     	;# 
   782     009E                     	;# 
   783     010C                     	;# 
   784     010D                     	;# 
   785     010E                     	;# 
   786     0110                     	;# 
   787     0111                     	;# 
   788     0112                     	;# 
   789     0113                     	;# 
   790     0114                     	;# 
   791     0115                     	;# 
   792     0116                     	;# 
   793     0117                     	;# 
   794     0118                     	;# 
   795     0119                     	;# 
   796     011A                     	;# 
   797     011B                     	;# 
   798     011D                     	;# 
   799     018C                     	;# 
   800     018D                     	;# 
   801     0191                     	;# 
   802     0191                     	;# 
   803     0192                     	;# 
   804     0193                     	;# 
   805     0193                     	;# 
   806     0193                     	;# 
   807     0194                     	;# 
   808     0195                     	;# 
   809     0196                     	;# 
   810     0199                     	;# 
   811     019A                     	;# 
   812     019B                     	;# 
   813     019B                     	;# 
   814     019B                     	;# 
   815     019B                     	;# 
   816     019C                     	;# 
   817     019C                     	;# 
   818     019D                     	;# 
   819     019E                     	;# 
   820     019F                     	;# 
   821     020D                     	;# 
   822     0210                     	;# 
   823     0211                     	;# 
   824     0212                     	;# 
   825     0213                     	;# 
   826     0214                     	;# 
   827     0215                     	;# 
   828     0215                     	;# 
   829     0216                     	;# 
   830     0217                     	;# 
   831     0291                     	;# 
   832     0291                     	;# 
   833     0292                     	;# 
   834     0293                     	;# 
   835     0294                     	;# 
   836     0295                     	;# 
   837     0295                     	;# 
   838     0296                     	;# 
   839     0298                     	;# 
   840     0298                     	;# 
   841     0299                     	;# 
   842     029A                     	;# 
   843     029B                     	;# 
   844     029C                     	;# 
   845     029C                     	;# 
   846     029D                     	;# 
   847     029E                     	;# 
   848     029F                     	;# 
   849     0311                     	;# 
   850     0311                     	;# 
   851     0312                     	;# 
   852     0313                     	;# 
   853     0314                     	;# 
   854     0315                     	;# 
   855     0315                     	;# 
   856     0316                     	;# 
   857     0318                     	;# 
   858     0318                     	;# 
   859     0319                     	;# 
   860     031A                     	;# 
   861     031C                     	;# 
   862     031C                     	;# 
   863     031D                     	;# 
   864     031E                     	;# 
   865     0394                     	;# 
   866     0395                     	;# 
   867     0396                     	;# 
   868     0415                     	;# 
   869     0416                     	;# 
   870     0417                     	;# 
   871     041C                     	;# 
   872     041D                     	;# 
   873     041E                     	;# 
   874     0791                     	;# 
   875     0792                     	;# 
   876     0793                     	;# 
   877     0794                     	;# 
   878     0795                     	;# 
   879     0798                     	;# 
   880     0799                     	;# 
   881     07A0                     	;# 
   882     07A1                     	;# 
   883     07A3                     	;# 
   884     07A4                     	;# 
   885     07A6                     	;# 
   886     07A7                     	;# 
   887     07A9                     	;# 
   888     07AA                     	;# 
   889     0FE4                     	;# 
   890     0FE5                     	;# 
   891     0FE6                     	;# 
   892     0FE7                     	;# 
   893     0FE8                     	;# 
   894     0FE9                     	;# 
   895     0FEA                     	;# 
   896     0FEB                     	;# 
   897     0FED                     	;# 
   898     0FEE                     	;# 
   899     0FEF                     	;# 
   900     0000                     	;# 
   901     0001                     	;# 
   902     0002                     	;# 
   903     0003                     	;# 
   904     0004                     	;# 
   905     0005                     	;# 
   906     0006                     	;# 
   907     0007                     	;# 
   908     0008                     	;# 
   909     0009                     	;# 
   910     000A                     	;# 
   911     000B                     	;# 
   912     000C                     	;# 
   913     000D                     	;# 
   914     000E                     	;# 
   915     0010                     	;# 
   916     0011                     	;# 
   917     0012                     	;# 
   918     0013                     	;# 
   919     0015                     	;# 
   920     0016                     	;# 
   921     0016                     	;# 
   922     0017                     	;# 
   923     0018                     	;# 
   924     0019                     	;# 
   925     001A                     	;# 
   926     001B                     	;# 
   927     001C                     	;# 
   928     001E                     	;# 
   929     001F                     	;# 
   930     008C                     	;# 
   931     008D                     	;# 
   932     008E                     	;# 
   933     0090                     	;# 
   934     0091                     	;# 
   935     0092                     	;# 
   936     0093                     	;# 
   937     0095                     	;# 
   938     0096                     	;# 
   939     0097                     	;# 
   940     0098                     	;# 
   941     0099                     	;# 
   942     009A                     	;# 
   943     009B                     	;# 
   944     009B                     	;# 
   945     009C                     	;# 
   946     009D                     	;# 
   947     009E                     	;# 
   948     010C                     	;# 
   949     010D                     	;# 
   950     010E                     	;# 
   951     0110                     	;# 
   952     0111                     	;# 
   953     0112                     	;# 
   954     0113                     	;# 
   955     0114                     	;# 
   956     0115                     	;# 
   957     0116                     	;# 
   958     0117                     	;# 
   959     0118                     	;# 
   960     0119                     	;# 
   961     011A                     	;# 
   962     011B                     	;# 
   963     011D                     	;# 
   964     018C                     	;# 
   965     018D                     	;# 
   966     0191                     	;# 
   967     0191                     	;# 
   968     0192                     	;# 
   969     0193                     	;# 
   970     0193                     	;# 
   971     0193                     	;# 
   972     0194                     	;# 
   973     0195                     	;# 
   974     0196                     	;# 
   975     0199                     	;# 
   976     019A                     	;# 
   977     019B                     	;# 
   978     019B                     	;# 
   979     019B                     	;# 
   980     019B                     	;# 
   981     019C                     	;# 
   982     019C                     	;# 
   983     019D                     	;# 
   984     019E                     	;# 
   985     019F                     	;# 
   986     020D                     	;# 
   987     0210                     	;# 
   988     0211                     	;# 
   989     0212                     	;# 
   990     0213                     	;# 
   991     0214                     	;# 
   992     0215                     	;# 
   993     0215                     	;# 
   994     0216                     	;# 
   995     0217                     	;# 
   996     0291                     	;# 
   997     0291                     	;# 
   998     0292                     	;# 
   999     0293                     	;# 
  1000     0294                     	;# 
  1001     0295                     	;# 
  1002     0295                     	;# 
  1003     0296                     	;# 
  1004     0298                     	;# 
  1005     0298                     	;# 
  1006     0299                     	;# 
  1007     029A                     	;# 
  1008     029B                     	;# 
  1009     029C                     	;# 
  1010     029C                     	;# 
  1011     029D                     	;# 
  1012     029E                     	;# 
  1013     029F                     	;# 
  1014     0311                     	;# 
  1015     0311                     	;# 
  1016     0312                     	;# 
  1017     0313                     	;# 
  1018     0314                     	;# 
  1019     0315                     	;# 
  1020     0315                     	;# 
  1021     0316                     	;# 
  1022     0318                     	;# 
  1023     0318                     	;# 
  1024     0319                     	;# 
  1025     031A                     	;# 
  1026     031C                     	;# 
  1027     031C                     	;# 
  1028     031D                     	;# 
  1029     031E                     	;# 
  1030     0394                     	;# 
  1031     0395                     	;# 
  1032     0396                     	;# 
  1033     0415                     	;# 
  1034     0416                     	;# 
  1035     0417                     	;# 
  1036     041C                     	;# 
  1037     041D                     	;# 
  1038     041E                     	;# 
  1039     0791                     	;# 
  1040     0792                     	;# 
  1041     0793                     	;# 
  1042     0794                     	;# 
  1043     0795                     	;# 
  1044     0798                     	;# 
  1045     0799                     	;# 
  1046     07A0                     	;# 
  1047     07A1                     	;# 
  1048     07A3                     	;# 
  1049     07A4                     	;# 
  1050     07A6                     	;# 
  1051     07A7                     	;# 
  1052     07A9                     	;# 
  1053     07AA                     	;# 
  1054     0FE4                     	;# 
  1055     0FE5                     	;# 
  1056     0FE6                     	;# 
  1057     0FE7                     	;# 
  1058     0FE8                     	;# 
  1059     0FE9                     	;# 
  1060     0FEA                     	;# 
  1061     0FEB                     	;# 
  1062     0FED                     	;# 
  1063     0FEE                     	;# 
  1064     0FEF                     	;# 
  1065     0000                     	;# 
  1066     0001                     	;# 
  1067     0002                     	;# 
  1068     0003                     	;# 
  1069     0004                     	;# 
  1070     0005                     	;# 
  1071     0006                     	;# 
  1072     0007                     	;# 
  1073     0008                     	;# 
  1074     0009                     	;# 
  1075     000A                     	;# 
  1076     000B                     	;# 
  1077     000C                     	;# 
  1078     000D                     	;# 
  1079     000E                     	;# 
  1080     0010                     	;# 
  1081     0011                     	;# 
  1082     0012                     	;# 
  1083     0013                     	;# 
  1084     0015                     	;# 
  1085     0016                     	;# 
  1086     0016                     	;# 
  1087     0017                     	;# 
  1088     0018                     	;# 
  1089     0019                     	;# 
  1090     001A                     	;# 
  1091     001B                     	;# 
  1092     001C                     	;# 
  1093     001E                     	;# 
  1094     001F                     	;# 
  1095     008C                     	;# 
  1096     008D                     	;# 
  1097     008E                     	;# 
  1098     0090                     	;# 
  1099     0091                     	;# 
  1100     0092                     	;# 
  1101     0093                     	;# 
  1102     0095                     	;# 
  1103     0096                     	;# 
  1104     0097                     	;# 
  1105     0098                     	;# 
  1106     0099                     	;# 
  1107     009A                     	;# 
  1108     009B                     	;# 
  1109     009B                     	;# 
  1110     009C                     	;# 
  1111     009D                     	;# 
  1112     009E                     	;# 
  1113     010C                     	;# 
  1114     010D                     	;# 
  1115     010E                     	;# 
  1116     0110                     	;# 
  1117     0111                     	;# 
  1118     0112                     	;# 
  1119     0113                     	;# 
  1120     0114                     	;# 
  1121     0115                     	;# 
  1122     0116                     	;# 
  1123     0117                     	;# 
  1124     0118                     	;# 
  1125     0119                     	;# 
  1126     011A                     	;# 
  1127     011B                     	;# 
  1128     011D                     	;# 
  1129     018C                     	;# 
  1130     018D                     	;# 
  1131     0191                     	;# 
  1132     0191                     	;# 
  1133     0192                     	;# 
  1134     0193                     	;# 
  1135     0193                     	;# 
  1136     0193                     	;# 
  1137     0194                     	;# 
  1138     0195                     	;# 
  1139     0196                     	;# 
  1140     0199                     	;# 
  1141     019A                     	;# 
  1142     019B                     	;# 
  1143     019B                     	;# 
  1144     019B                     	;# 
  1145     019B                     	;# 
  1146     019C                     	;# 
  1147     019C                     	;# 
  1148     019D                     	;# 
  1149     019E                     	;# 
  1150     019F                     	;# 
  1151     020D                     	;# 
  1152     0210                     	;# 
  1153     0211                     	;# 
  1154     0212                     	;# 
  1155     0213                     	;# 
  1156     0214                     	;# 
  1157     0215                     	;# 
  1158     0215                     	;# 
  1159     0216                     	;# 
  1160     0217                     	;# 
  1161     0291                     	;# 
  1162     0291                     	;# 
  1163     0292                     	;# 
  1164     0293                     	;# 
  1165     0294                     	;# 
  1166     0295                     	;# 
  1167     0295                     	;# 
  1168     0296                     	;# 
  1169     0298                     	;# 
  1170     0298                     	;# 
  1171     0299                     	;# 
  1172     029A                     	;# 
  1173     029B                     	;# 
  1174     029C                     	;# 
  1175     029C                     	;# 
  1176     029D                     	;# 
  1177     029E                     	;# 
  1178     029F                     	;# 
  1179     0311                     	;# 
  1180     0311                     	;# 
  1181     0312                     	;# 
  1182     0313                     	;# 
  1183     0314                     	;# 
  1184     0315                     	;# 
  1185     0315                     	;# 
  1186     0316                     	;# 
  1187     0318                     	;# 
  1188     0318                     	;# 
  1189     0319                     	;# 
  1190     031A                     	;# 
  1191     031C                     	;# 
  1192     031C                     	;# 
  1193     031D                     	;# 
  1194     031E                     	;# 
  1195     0394                     	;# 
  1196     0395                     	;# 
  1197     0396                     	;# 
  1198     0415                     	;# 
  1199     0416                     	;# 
  1200     0417                     	;# 
  1201     041C                     	;# 
  1202     041D                     	;# 
  1203     041E                     	;# 
  1204     0791                     	;# 
  1205     0792                     	;# 
  1206     0793                     	;# 
  1207     0794                     	;# 
  1208     0795                     	;# 
  1209     0798                     	;# 
  1210     0799                     	;# 
  1211     07A0                     	;# 
  1212     07A1                     	;# 
  1213     07A3                     	;# 
  1214     07A4                     	;# 
  1215     07A6                     	;# 
  1216     07A7                     	;# 
  1217     07A9                     	;# 
  1218     07AA                     	;# 
  1219     0FE4                     	;# 
  1220     0FE5                     	;# 
  1221     0FE6                     	;# 
  1222     0FE7                     	;# 
  1223     0FE8                     	;# 
  1224     0FE9                     	;# 
  1225     0FEA                     	;# 
  1226     0FEB                     	;# 
  1227     0FED                     	;# 
  1228     0FEE                     	;# 
  1229     0FEF                     	;# 
  1230     0000                     	;# 
  1231     0001                     	;# 
  1232     0002                     	;# 
  1233     0003                     	;# 
  1234     0004                     	;# 
  1235     0005                     	;# 
  1236     0006                     	;# 
  1237     0007                     	;# 
  1238     0008                     	;# 
  1239     0009                     	;# 
  1240     000A                     	;# 
  1241     000B                     	;# 
  1242     000C                     	;# 
  1243     000D                     	;# 
  1244     000E                     	;# 
  1245     0010                     	;# 
  1246     0011                     	;# 
  1247     0012                     	;# 
  1248     0013                     	;# 
  1249     0015                     	;# 
  1250     0016                     	;# 
  1251     0016                     	;# 
  1252     0017                     	;# 
  1253     0018                     	;# 
  1254     0019                     	;# 
  1255     001A                     	;# 
  1256     001B                     	;# 
  1257     001C                     	;# 
  1258     001E                     	;# 
  1259     001F                     	;# 
  1260     008C                     	;# 
  1261     008D                     	;# 
  1262     008E                     	;# 
  1263     0090                     	;# 
  1264     0091                     	;# 
  1265     0092                     	;# 
  1266     0093                     	;# 
  1267     0095                     	;# 
  1268     0096                     	;# 
  1269     0097                     	;# 
  1270     0098                     	;# 
  1271     0099                     	;# 
  1272     009A                     	;# 
  1273     009B                     	;# 
  1274     009B                     	;# 
  1275     009C                     	;# 
  1276     009D                     	;# 
  1277     009E                     	;# 
  1278     010C                     	;# 
  1279     010D                     	;# 
  1280     010E                     	;# 
  1281     0110                     	;# 
  1282     0111                     	;# 
  1283     0112                     	;# 
  1284     0113                     	;# 
  1285     0114                     	;# 
  1286     0115                     	;# 
  1287     0116                     	;# 
  1288     0117                     	;# 
  1289     0118                     	;# 
  1290     0119                     	;# 
  1291     011A                     	;# 
  1292     011B                     	;# 
  1293     011D                     	;# 
  1294     018C                     	;# 
  1295     018D                     	;# 
  1296     0191                     	;# 
  1297     0191                     	;# 
  1298     0192                     	;# 
  1299     0193                     	;# 
  1300     0193                     	;# 
  1301     0193                     	;# 
  1302     0194                     	;# 
  1303     0195                     	;# 
  1304     0196                     	;# 
  1305     0199                     	;# 
  1306     019A                     	;# 
  1307     019B                     	;# 
  1308     019B                     	;# 
  1309     019B                     	;# 
  1310     019B                     	;# 
  1311     019C                     	;# 
  1312     019C                     	;# 
  1313     019D                     	;# 
  1314     019E                     	;# 
  1315     019F                     	;# 
  1316     020D                     	;# 
  1317     0210                     	;# 
  1318     0211                     	;# 
  1319     0212                     	;# 
  1320     0213                     	;# 
  1321     0214                     	;# 
  1322     0215                     	;# 
  1323     0215                     	;# 
  1324     0216                     	;# 
  1325     0217                     	;# 
  1326     0291                     	;# 
  1327     0291                     	;# 
  1328     0292                     	;# 
  1329     0293                     	;# 
  1330     0294                     	;# 
  1331     0295                     	;# 
  1332     0295                     	;# 
  1333     0296                     	;# 
  1334     0298                     	;# 
  1335     0298                     	;# 
  1336     0299                     	;# 
  1337     029A                     	;# 
  1338     029B                     	;# 
  1339     029C                     	;# 
  1340     029C                     	;# 
  1341     029D                     	;# 
  1342     029E                     	;# 
  1343     029F                     	;# 
  1344     0311                     	;# 
  1345     0311                     	;# 
  1346     0312                     	;# 
  1347     0313                     	;# 
  1348     0314                     	;# 
  1349     0315                     	;# 
  1350     0315                     	;# 
  1351     0316                     	;# 
  1352     0318                     	;# 
  1353     0318                     	;# 
  1354     0319                     	;# 
  1355     031A                     	;# 
  1356     031C                     	;# 
  1357     031C                     	;# 
  1358     031D                     	;# 
  1359     031E                     	;# 
  1360     0394                     	;# 
  1361     0395                     	;# 
  1362     0396                     	;# 
  1363     0415                     	;# 
  1364     0416                     	;# 
  1365     0417                     	;# 
  1366     041C                     	;# 
  1367     041D                     	;# 
  1368     041E                     	;# 
  1369     0791                     	;# 
  1370     0792                     	;# 
  1371     0793                     	;# 
  1372     0794                     	;# 
  1373     0795                     	;# 
  1374     0798                     	;# 
  1375     0799                     	;# 
  1376     07A0                     	;# 
  1377     07A1                     	;# 
  1378     07A3                     	;# 
  1379     07A4                     	;# 
  1380     07A6                     	;# 
  1381     07A7                     	;# 
  1382     07A9                     	;# 
  1383     07AA                     	;# 
  1384     0FE4                     	;# 
  1385     0FE5                     	;# 
  1386     0FE6                     	;# 
  1387     0FE7                     	;# 
  1388     0FE8                     	;# 
  1389     0FE9                     	;# 
  1390     0FEA                     	;# 
  1391     0FEB                     	;# 
  1392     0FED                     	;# 
  1393     0FEE                     	;# 
  1394     0FEF                     	;# 
  1395     0000                     	;# 
  1396     0001                     	;# 
  1397     0002                     	;# 
  1398     0003                     	;# 
  1399     0004                     	;# 
  1400     0005                     	;# 
  1401     0006                     	;# 
  1402     0007                     	;# 
  1403     0008                     	;# 
  1404     0009                     	;# 
  1405     000A                     	;# 
  1406     000B                     	;# 
  1407     000C                     	;# 
  1408     000D                     	;# 
  1409     000E                     	;# 
  1410     0010                     	;# 
  1411     0011                     	;# 
  1412     0012                     	;# 
  1413     0013                     	;# 
  1414     0015                     	;# 
  1415     0016                     	;# 
  1416     0016                     	;# 
  1417     0017                     	;# 
  1418     0018                     	;# 
  1419     0019                     	;# 
  1420     001A                     	;# 
  1421     001B                     	;# 
  1422     001C                     	;# 
  1423     001E                     	;# 
  1424     001F                     	;# 
  1425     008C                     	;# 
  1426     008D                     	;# 
  1427     008E                     	;# 
  1428     0090                     	;# 
  1429     0091                     	;# 
  1430     0092                     	;# 
  1431     0093                     	;# 
  1432     0095                     	;# 
  1433     0096                     	;# 
  1434     0097                     	;# 
  1435     0098                     	;# 
  1436     0099                     	;# 
  1437     009A                     	;# 
  1438     009B                     	;# 
  1439     009B                     	;# 
  1440     009C                     	;# 
  1441     009D                     	;# 
  1442     009E                     	;# 
  1443     010C                     	;# 
  1444     010D                     	;# 
  1445     010E                     	;# 
  1446     0110                     	;# 
  1447     0111                     	;# 
  1448     0112                     	;# 
  1449     0113                     	;# 
  1450     0114                     	;# 
  1451     0115                     	;# 
  1452     0116                     	;# 
  1453     0117                     	;# 
  1454     0118                     	;# 
  1455     0119                     	;# 
  1456     011A                     	;# 
  1457     011B                     	;# 
  1458     011D                     	;# 
  1459     018C                     	;# 
  1460     018D                     	;# 
  1461     0191                     	;# 
  1462     0191                     	;# 
  1463     0192                     	;# 
  1464     0193                     	;# 
  1465     0193                     	;# 
  1466     0193                     	;# 
  1467     0194                     	;# 
  1468     0195                     	;# 
  1469     0196                     	;# 
  1470     0199                     	;# 
  1471     019A                     	;# 
  1472     019B                     	;# 
  1473     019B                     	;# 
  1474     019B                     	;# 
  1475     019B                     	;# 
  1476     019C                     	;# 
  1477     019C                     	;# 
  1478     019D                     	;# 
  1479     019E                     	;# 
  1480     019F                     	;# 
  1481     020D                     	;# 
  1482     0210                     	;# 
  1483     0211                     	;# 
  1484     0212                     	;# 
  1485     0213                     	;# 
  1486     0214                     	;# 
  1487     0215                     	;# 
  1488     0215                     	;# 
  1489     0216                     	;# 
  1490     0217                     	;# 
  1491     0291                     	;# 
  1492     0291                     	;# 
  1493     0292                     	;# 
  1494     0293                     	;# 
  1495     0294                     	;# 
  1496     0295                     	;# 
  1497     0295                     	;# 
  1498     0296                     	;# 
  1499     0298                     	;# 
  1500     0298                     	;# 
  1501     0299                     	;# 
  1502     029A                     	;# 
  1503     029B                     	;# 
  1504     029C                     	;# 
  1505     029C                     	;# 
  1506     029D                     	;# 
  1507     029E                     	;# 
  1508     029F                     	;# 
  1509     0311                     	;# 
  1510     0311                     	;# 
  1511     0312                     	;# 
  1512     0313                     	;# 
  1513     0314                     	;# 
  1514     0315                     	;# 
  1515     0315                     	;# 
  1516     0316                     	;# 
  1517     0318                     	;# 
  1518     0318                     	;# 
  1519     0319                     	;# 
  1520     031A                     	;# 
  1521     031C                     	;# 
  1522     031C                     	;# 
  1523     031D                     	;# 
  1524     031E                     	;# 
  1525     0394                     	;# 
  1526     0395                     	;# 
  1527     0396                     	;# 
  1528     0415                     	;# 
  1529     0416                     	;# 
  1530     0417                     	;# 
  1531     041C                     	;# 
  1532     041D                     	;# 
  1533     041E                     	;# 
  1534     0791                     	;# 
  1535     0792                     	;# 
  1536     0793                     	;# 
  1537     0794                     	;# 
  1538     0795                     	;# 
  1539     0798                     	;# 
  1540     0799                     	;# 
  1541     07A0                     	;# 
  1542     07A1                     	;# 
  1543     07A3                     	;# 
  1544     07A4                     	;# 
  1545     07A6                     	;# 
  1546     07A7                     	;# 
  1547     07A9                     	;# 
  1548     07AA                     	;# 
  1549     0FE4                     	;# 
  1550     0FE5                     	;# 
  1551     0FE6                     	;# 
  1552     0FE7                     	;# 
  1553     0FE8                     	;# 
  1554     0FE9                     	;# 
  1555     0FEA                     	;# 
  1556     0FEB                     	;# 
  1557     0FED                     	;# 
  1558     0FEE                     	;# 
  1559     0FEF                     	;# 
  1560     0000                     	;# 
  1561     0001                     	;# 
  1562     0002                     	;# 
  1563     0003                     	;# 
  1564     0004                     	;# 
  1565     0005                     	;# 
  1566     0006                     	;# 
  1567     0007                     	;# 
  1568     0008                     	;# 
  1569     0009                     	;# 
  1570     000A                     	;# 
  1571     000B                     	;# 
  1572     000C                     	;# 
  1573     000D                     	;# 
  1574     000E                     	;# 
  1575     0010                     	;# 
  1576     0011                     	;# 
  1577     0012                     	;# 
  1578     0013                     	;# 
  1579     0015                     	;# 
  1580     0016                     	;# 
  1581     0016                     	;# 
  1582     0017                     	;# 
  1583     0018                     	;# 
  1584     0019                     	;# 
  1585     001A                     	;# 
  1586     001B                     	;# 
  1587     001C                     	;# 
  1588     001E                     	;# 
  1589     001F                     	;# 
  1590     008C                     	;# 
  1591     008D                     	;# 
  1592     008E                     	;# 
  1593     0090                     	;# 
  1594     0091                     	;# 
  1595     0092                     	;# 
  1596     0093                     	;# 
  1597     0095                     	;# 
  1598     0096                     	;# 
  1599     0097                     	;# 
  1600     0098                     	;# 
  1601     0099                     	;# 
  1602     009A                     	;# 
  1603     009B                     	;# 
  1604     009B                     	;# 
  1605     009C                     	;# 
  1606     009D                     	;# 
  1607     009E                     	;# 
  1608     010C                     	;# 
  1609     010D                     	;# 
  1610     010E                     	;# 
  1611     0110                     	;# 
  1612     0111                     	;# 
  1613     0112                     	;# 
  1614     0113                     	;# 
  1615     0114                     	;# 
  1616     0115                     	;# 
  1617     0116                     	;# 
  1618     0117                     	;# 
  1619     0118                     	;# 
  1620     0119                     	;# 
  1621     011A                     	;# 
  1622     011B                     	;# 
  1623     011D                     	;# 
  1624     018C                     	;# 
  1625     018D                     	;# 
  1626     0191                     	;# 
  1627     0191                     	;# 
  1628     0192                     	;# 
  1629     0193                     	;# 
  1630     0193                     	;# 
  1631     0193                     	;# 
  1632     0194                     	;# 
  1633     0195                     	;# 
  1634     0196                     	;# 
  1635     0199                     	;# 
  1636     019A                     	;# 
  1637     019B                     	;# 
  1638     019B                     	;# 
  1639     019B                     	;# 
  1640     019B                     	;# 
  1641     019C                     	;# 
  1642     019C                     	;# 
  1643     019D                     	;# 
  1644     019E                     	;# 
  1645     019F                     	;# 
  1646     020D                     	;# 
  1647     0210                     	;# 
  1648     0211                     	;# 
  1649     0212                     	;# 
  1650     0213                     	;# 
  1651     0214                     	;# 
  1652     0215                     	;# 
  1653     0215                     	;# 
  1654     0216                     	;# 
  1655     0217                     	;# 
  1656     0291                     	;# 
  1657     0291                     	;# 
  1658     0292                     	;# 
  1659     0293                     	;# 
  1660     0294                     	;# 
  1661     0295                     	;# 
  1662     0295                     	;# 
  1663     0296                     	;# 
  1664     0298                     	;# 
  1665     0298                     	;# 
  1666     0299                     	;# 
  1667     029A                     	;# 
  1668     029B                     	;# 
  1669     029C                     	;# 
  1670     029C                     	;# 
  1671     029D                     	;# 
  1672     029E                     	;# 
  1673     029F                     	;# 
  1674     0311                     	;# 
  1675     0311                     	;# 
  1676     0312                     	;# 
  1677     0313                     	;# 
  1678     0314                     	;# 
  1679     0315                     	;# 
  1680     0315                     	;# 
  1681     0316                     	;# 
  1682     0318                     	;# 
  1683     0318                     	;# 
  1684     0319                     	;# 
  1685     031A                     	;# 
  1686     031C                     	;# 
  1687     031C                     	;# 
  1688     031D                     	;# 
  1689     031E                     	;# 
  1690     0394                     	;# 
  1691     0395                     	;# 
  1692     0396                     	;# 
  1693     0415                     	;# 
  1694     0416                     	;# 
  1695     0417                     	;# 
  1696     041C                     	;# 
  1697     041D                     	;# 
  1698     041E                     	;# 
  1699     0791                     	;# 
  1700     0792                     	;# 
  1701     0793                     	;# 
  1702     0794                     	;# 
  1703     0795                     	;# 
  1704     0798                     	;# 
  1705     0799                     	;# 
  1706     07A0                     	;# 
  1707     07A1                     	;# 
  1708     07A3                     	;# 
  1709     07A4                     	;# 
  1710     07A6                     	;# 
  1711     07A7                     	;# 
  1712     07A9                     	;# 
  1713     07AA                     	;# 
  1714     0FE4                     	;# 
  1715     0FE5                     	;# 
  1716     0FE6                     	;# 
  1717     0FE7                     	;# 
  1718     0FE8                     	;# 
  1719     0FE9                     	;# 
  1720     0FEA                     	;# 
  1721     0FEB                     	;# 
  1722     0FED                     	;# 
  1723     0FEE                     	;# 
  1724     0FEF                     	;# 
  1725                           
  1726                           	psect	idataBANK1
  1727     034F                     __pidataBANK1:
  1728                           
  1729                           ;initializer for _CS
  1730     034F  344C               	retlw	76
  1731     0350  349F               	retlw	159
  1732     0351  34ED               	retlw	237
  1733     0352  343E               	retlw	62
  1734     0353  349A               	retlw	154
  1735     0354  3400               	retlw	0
  1736     0355  3400               	retlw	0
  1737     0356  3400               	retlw	0
  1738     0357  3427               	retlw	39
  1739     0358  3400               	retlw	0
  1740     0359  3400               	retlw	0
  1741     035A  3400               	retlw	0
  1742     035B  34F1               	retlw	241
  1743     035C  34A0               	retlw	160
  1744     035D  34D2               	retlw	210
  1745     035E  3401               	retlw	1
  1746     035F  34B1               	retlw	177
  1747     0360  345D               	retlw	93
  1748     0361  342F               	retlw	47
  1749     0362  34FC               	retlw	252
  1750     0363  3467               	retlw	103
  1751     0364  3400               	retlw	0
  1752     0365  3400               	retlw	0
  1753     0366  3400               	retlw	0
  1754     0367  34DA               	retlw	218
  1755     0368  3400               	retlw	0
  1756     0369  3400               	retlw	0
  1757     036A  3400               	retlw	0
  1758     036B  340C               	retlw	12
  1759     036C  3462               	retlw	98
  1760     036D  3410               	retlw	16
  1761     036E  34C3               	retlw	195
  1762     036F  34FA               	retlw	250
  1763     0370  34FE               	retlw	254
  1764     0371  348C               	retlw	140
  1765     0372  345F               	retlw	95
  1766     0373  342C               	retlw	44
  1767     0374  3400               	retlw	0
  1768     0375  3400               	retlw	0
  1769     0376  3400               	retlw	0
  1770     0377  3491               	retlw	145
  1771     0378  34EB               	retlw	235
  1772     0379  3499               	retlw	153
  1773     037A  344A               	retlw	74
  1774     037B  3447               	retlw	71
  1775     037C  34C1               	retlw	193
  1776     037D  34B3               	retlw	179
  1777     037E  3460               	retlw	96
  1778     037F  3407               	retlw	7
  1779     0380  343C               	retlw	60
  1780     0381  344E               	retlw	78
  1781     0382  349D               	retlw	157
  1782     0383  34D1               	retlw	209
  1783     0384  3400               	retlw	0
  1784     0385  3400               	retlw	0
  1785     0386  3400               	retlw	0
  1786     0387  346C               	retlw	108
  1787     0388  3400               	retlw	0
  1788     0389  3400               	retlw	0
  1789     038A  3400               	retlw	0
  1790     038B  34BA               	retlw	186
  1791     038C  3403               	retlw	3
  1792     038D  3471               	retlw	113
  1793     038E  34A2               	retlw	162
  1794     000D                     _PORTBbits	set	13
  1795     001C                     _T2CONbits	set	28
  1796     001C                     _T2CON	set	28
  1797     001A                     _TMR2	set	26
  1798     001B                     _PR2	set	27
  1799     0015                     _TMR0	set	21
  1800     0019                     _T1GCONbits	set	25
  1801     0018                     _T1CONbits	set	24
  1802     0018                     _T1CON	set	24
  1803     0011                     _PIR1bits	set	17
  1804     0016                     _TMR1L	set	22
  1805     0017                     _TMR1H	set	23
  1806     0019                     _T1GCON	set	25
  1807     0013                     _PIR3bits	set	19
  1808     000B                     _INTCONbits	set	11
  1809     0095                     _OPTION_REG	set	149
  1810     0095                     _OPTION_REGbits	set	149
  1811     008E                     _TRISC	set	142
  1812     008D                     _TRISB	set	141
  1813     008C                     _TRISA	set	140
  1814     0090                     _TRISE	set	144
  1815     0093                     _PIE3bits	set	147
  1816     0097                     _WDTCON	set	151
  1817     0098                     _OSCTUNE	set	152
  1818     0099                     _OSCCON	set	153
  1819     04D6                     _PLLR	set	1238
  1820     010E                     _LATCbits	set	270
  1821     010C                     _LATAbits	set	268
  1822     010D                     _LATBbits	set	269
  1823     011D                     _APFCON	set	285
  1824     010E                     _LATC	set	270
  1825     010D                     _LATB	set	269
  1826     010C                     _LATA	set	268
  1827     0110                     _LATE	set	272
  1828     0116                     _BORCON	set	278
  1829     018C                     _ANSELA	set	396
  1830     018D                     _ANSELB	set	397
  1831     020D                     _WPUB	set	525
  1832     0210                     _WPUE	set	528
  1833     029E                     _CCPTMRS0bits	set	670
  1834     0291                     _CCPR1L	set	657
  1835     0292                     _CCPR1H	set	658
  1836     0296                     _PSTR1CON	set	662
  1837     0294                     _PWM1CON	set	660
  1838     0295                     _ECCP1AS	set	661
  1839     0293                     _CCP1CON	set	659
  1840     0311                     _CCPR3L	set	785
  1841     0312                     _CCPR3H	set	786
  1842     0313                     _CCP3CON	set	787
  1843                           
  1844                           	psect	cinit
  1845     0028                     start_initialization:	
  1846                           ; #config settings
  1847                           
  1848     0028                     __initialization:
  1849                           
  1850                           ; Initialize objects allocated to BANK1
  1851     0028  304F               	movlw	low __pidataBANK1
  1852     0029  0084               	movwf	4
  1853     002A  3083               	movlw	(high __pidataBANK1)| (0+128)
  1854     002B  0085               	movwf	5
  1855     002C  30A0               	movlw	low __pdataBANK1
  1856     002D  0086               	movwf	6
  1857     002E  3000               	movlw	high __pdataBANK1
  1858     002F  0087               	movwf	7
  1859     0030  3040               	movlw	64
  1860     0031  3184  24C3  3180   	fcall	init_ram
  1861                           
  1862                           ; Clear objects allocated to COMMON
  1863     0034  01F0               	clrf	__pbssCOMMON& (0+127)
  1864     0035  01F1               	clrf	(__pbssCOMMON+1)& (0+127)
  1865     0036  01F2               	clrf	(__pbssCOMMON+2)& (0+127)
  1866     0037  01F3               	clrf	(__pbssCOMMON+3)& (0+127)
  1867     0038  01F4               	clrf	(__pbssCOMMON+4)& (0+127)
  1868     0039  01F5               	clrf	(__pbssCOMMON+5)& (0+127)
  1869                           
  1870                           ; Clear objects allocated to BANK0
  1871     003A  3020               	movlw	low __pbssBANK0
  1872     003B  0084               	movwf	4
  1873     003C  3000               	movlw	high __pbssBANK0
  1874     003D  0085               	movwf	5
  1875     003E  3025               	movlw	37
  1876     003F  3184  24C9  3180   	fcall	clear_ram0
  1877     0042                     end_of_initialization:	
  1878                           ;End of C runtime variable initialization code
  1879                           
  1880     0042                     __end_of__initialization:
  1881     0042  107E               	bcf	int$flags,0	;clear compiler interrupt flag (level 1)
  1882     0043  0020               	movlb	0
  1883     0044  3183  2B0E         	ljmp	_main	;jump to C main() function
  1884                           
  1885                           	psect	bssCOMMON
  1886     0070                     __pbssCOMMON:
  1887     0070                     ECCP3_CallBack@falling_edge_time:
  1888     0070                     	ds	2
  1889     0072                     ECCP3_CallBack@HI_us:
  1890     0072                     	ds	1
  1891     0073                     _D2:
  1892     0073                     	ds	1
  1893     0074                     _rx_data:
  1894     0074                     	ds	1
  1895     0075                     _timer0ReloadVal:
  1896     0075                     	ds	1
  1897                           
  1898                           	psect	bssBANK0
  1899     0020                     __pbssBANK0:
  1900     0020                     _data_buf:
  1901     0020                     	ds	11
  1902     002B                     ECCP3_CallBack@rising_edge_time:
  1903     002B                     	ds	2
  1904     002D                     ECCP3_CallBack@pluse_width_HI:
  1905     002D                     	ds	2
  1906     002F                     ECCP3_CallBack@pluse_width_LO:
  1907     002F                     	ds	2
  1908     0031                     TMR0_ISR@CountCallBack:
  1909     0031                     	ds	2
  1910     0033                     _TMR0_InterruptHandler:
  1911     0033                     	ds	2
  1912     0035                     _timer1ReloadVal:
  1913     0035                     	ds	2
  1914     0037                     ECCP3_CallBack@data_cnt:
  1915     0037                     	ds	1
  1916     0038                     ECCP3_CallBack@fHead:
  1917     0038                     	ds	1
  1918     0039                     ECCP3_CallBack@rise_edge_flag:
  1919     0039                     	ds	1
  1920     003A                     ECCP3_CallBack@diff_us:
  1921     003A                     	ds	1
  1922     003B                     ECCP3_CallBack@LO_us:
  1923     003B                     	ds	1
  1924     003C                     _fLampSide:
  1925     003C                     	ds	1
  1926     003D                     _fException2:
  1927     003D                     	ds	1
  1928     003E                     _fException:
  1929     003E                     	ds	1
  1930     003F                     _T10MS_CNT:
  1931     003F                     	ds	1
  1932     0040                     _csFlag:
  1933     0040                     	ds	1
  1934     0041                     _D3:
  1935     0041                     	ds	1
  1936     0042                     _step:
  1937     0042                     	ds	1
  1938     0043                     _fFrame_OK:
  1939     0043                     	ds	1
  1940     0044                     _data_1byte_OK:
  1941     0044                     	ds	1
  1942                           
  1943                           	psect	dataBANK1
  1944     00A0                     __pdataBANK1:
  1945     00A0                     _CS:
  1946     00A0                     	ds	64
  1947                           
  1948                           	psect	inittext
  1949     04C3                     init_ram:
  1950     04C3  00FE               	movwf	btemp
  1951     04C4                     initloop:
  1952     04C4  0012               	moviw fsr0++
  1953     04C5  001E               	movwi fsr1++
  1954     04C6  0BFE               	decfsz	btemp,f
  1955     04C7  2CC4               	goto	initloop
  1956     04C8  3400               	retlw	0
  1957                           
  1958                           	psect	clrtext
  1959     04C9                     clear_ram0:	
  1960                           ;	Called with FSR0 containing the base address, and
  1961                           ;	WREG with the size to clear
  1962                           
  1963     04C9  0064               	clrwdt	;clear the watchdog before getting into this loop
  1964     04CA                     clrloop0:
  1965     04CA  0180               	clrf	0	;clear RAM location pointed to by FSR
  1966     04CB  3101               	addfsr 0,1
  1967     04CC  0B89               	decfsz	9,f	;Have we reached the end of clearing yet?
  1968     04CD  2CCA               	goto	clrloop0	;have we reached the end yet?
  1969     04CE  3400               	retlw	0	;all done for this memory range, return
  1970                           
  1971                           	psect	cstackCOMMON
  1972     0076                     __pcstackCOMMON:
  1973     0076                     ?_PIN_MANAGER_Initialize:
  1974     0076                     ?_OSCILLATOR_Initialize:	
  1975                           ; 1 bytes @ 0x0
  1976                           
  1977     0076                     ?_WDT_Initialize:	
  1978                           ; 1 bytes @ 0x0
  1979                           
  1980     0076                     ?_EPWM1_Initialize:	
  1981                           ; 1 bytes @ 0x0
  1982                           
  1983     0076                     ?_ECCP3_Initialize:	
  1984                           ; 1 bytes @ 0x0
  1985                           
  1986     0076                     ?_TMR2_Initialize:	
  1987                           ; 1 bytes @ 0x0
  1988                           
  1989     0076                     ?_TMR1_Initialize:	
  1990                           ; 1 bytes @ 0x0
  1991                           
  1992     0076                     ?_TMR0_Initialize:	
  1993                           ; 1 bytes @ 0x0
  1994                           
  1995     0076                     ?_TMR0_ISR:	
  1996                           ; 1 bytes @ 0x0
  1997                           
  1998     0076                     ?_ECCP3_CaptureISR:	
  1999                           ; 1 bytes @ 0x0
  2000                           
  2001     0076                     ?_TMR0_DefaultInterruptHandler:	
  2002                           ; 1 bytes @ 0x0
  2003                           
  2004     0076                     ??_TMR0_DefaultInterruptHandler:	
  2005                           ; 1 bytes @ 0x0
  2006                           
  2007     0076                     ?_TMR0_CallBack:	
  2008                           ; 1 bytes @ 0x0
  2009                           
  2010     0076                     ?_ECCP3_CallBack:	
  2011                           ; 1 bytes @ 0x0
  2012                           
  2013     0076                     ?_POS_ON:	
  2014                           ; 1 bytes @ 0x0
  2015                           
  2016     0076                     ?_SYSTEM_Initialize:	
  2017                           ; 1 bytes @ 0x0
  2018                           
  2019     0076                     ?_INTERRUPT_InterruptManager:	
  2020                           ; 1 bytes @ 0x0
  2021                           
  2022     0076                     ?_LoBeam_ON:	
  2023                           ; 1 bytes @ 0x0
  2024                           
  2025     0076                     ?_Exception_handling:	
  2026                           ; 1 bytes @ 0x0
  2027                           
  2028     0076                     ?_DRL_ON:	
  2029                           ; 1 bytes @ 0x0
  2030                           
  2031     0076                     ?_LED_output:	
  2032                           ; 1 bytes @ 0x0
  2033                           
  2034     0076                     ?_check_input:	
  2035                           ; 1 bytes @ 0x0
  2036                           
  2037     0076                     ?_getFrameData:	
  2038                           ; 1 bytes @ 0x0
  2039                           
  2040     0076                     ?_TMR0_EvenHandler:	
  2041                           ; 1 bytes @ 0x0
  2042                           
  2043     0076                     ??_TMR0_EvenHandler:	
  2044                           ; 1 bytes @ 0x0
  2045                           
  2046     0076                     ?_main:	
  2047                           ; 1 bytes @ 0x0
  2048                           
  2049     0076                     ECCP3_CallBack@capturedValue:	
  2050                           ; 2 bytes @ 0x0
  2051                           
  2052                           
  2053                           ; 2 bytes @ 0x0
  2054     0076                     	ds	1
  2055     0077                     ??_TMR0_ISR:
  2056     0077                     ??_TMR0_CallBack:	
  2057                           ; 1 bytes @ 0x1
  2058                           
  2059                           
  2060                           ; 1 bytes @ 0x1
  2061     0077                     	ds	1
  2062     0078                     ??_ECCP3_CallBack:
  2063                           
  2064                           ; 1 bytes @ 0x2
  2065     0078                     	ds	2
  2066     007A                     ??_ECCP3_CaptureISR:
  2067     007A                     ECCP3_CaptureISR@module:	
  2068                           ; 1 bytes @ 0x4
  2069                           
  2070                           
  2071                           ; 2 bytes @ 0x4
  2072     007A                     	ds	2
  2073     007C                     ??_INTERRUPT_InterruptManager:
  2074                           
  2075                           	psect	cstackBANK0
  2076     0045                     __pcstackBANK0:	
  2077                           ; 1 bytes @ 0x6
  2078                           
  2079     0045                     ??_PIN_MANAGER_Initialize:
  2080     0045                     ??_OSCILLATOR_Initialize:	
  2081                           ; 1 bytes @ 0x0
  2082                           
  2083     0045                     ??_WDT_Initialize:	
  2084                           ; 1 bytes @ 0x0
  2085                           
  2086     0045                     ??_EPWM1_Initialize:	
  2087                           ; 1 bytes @ 0x0
  2088                           
  2089     0045                     ??_ECCP3_Initialize:	
  2090                           ; 1 bytes @ 0x0
  2091                           
  2092     0045                     ??_TMR2_Initialize:	
  2093                           ; 1 bytes @ 0x0
  2094                           
  2095     0045                     ??_TMR1_Initialize:	
  2096                           ; 1 bytes @ 0x0
  2097                           
  2098     0045                     ?_TMR0_SetInterruptHandler:	
  2099                           ; 1 bytes @ 0x0
  2100                           
  2101     0045                     ??_POS_ON:	
  2102                           ; 1 bytes @ 0x0
  2103                           
  2104     0045                     ??_LoBeam_ON:	
  2105                           ; 1 bytes @ 0x0
  2106                           
  2107     0045                     ??_Exception_handling:	
  2108                           ; 1 bytes @ 0x0
  2109                           
  2110     0045                     ??_DRL_ON:	
  2111                           ; 1 bytes @ 0x0
  2112                           
  2113     0045                     ??_LED_output:	
  2114                           ; 1 bytes @ 0x0
  2115                           
  2116     0045                     ??_check_input:	
  2117                           ; 1 bytes @ 0x0
  2118                           
  2119     0045                     ??_getFrameData:	
  2120                           ; 1 bytes @ 0x0
  2121                           
  2122     0045                     TMR0_SetInterruptHandler@InterruptHandler:	
  2123                           ; 1 bytes @ 0x0
  2124                           
  2125                           
  2126                           ; 2 bytes @ 0x0
  2127     0045                     	ds	1
  2128     0046                     LED_output@crc8:
  2129                           
  2130                           ; 1 bytes @ 0x1
  2131     0046                     	ds	1
  2132     0047                     ??_TMR0_Initialize:
  2133     0047                     ??_TMR0_SetInterruptHandler:	
  2134                           ; 1 bytes @ 0x2
  2135                           
  2136     0047                     ??_SYSTEM_Initialize:	
  2137                           ; 1 bytes @ 0x2
  2138                           
  2139     0047                     LED_output@i:	
  2140                           ; 1 bytes @ 0x2
  2141                           
  2142                           
  2143                           ; 1 bytes @ 0x2
  2144     0047                     	ds	1
  2145     0048                     ??_main:
  2146                           
  2147                           	psect	maintext
  2148     030E                     __pmaintext:	
  2149                           ; 1 bytes @ 0x3
  2150 ;;
  2151 ;;Main: autosize = 0, tempsize = 0, incstack = 0, save=0
  2152 ;;
  2153 ;; *************** function _main *****************
  2154 ;; Defined at:
  2155 ;;		line 660 in file "main.c"
  2156 ;; Parameters:    Size  Location     Type
  2157 ;;		None
  2158 ;; Auto vars:     Size  Location     Type
  2159 ;;		None
  2160 ;; Return value:  Size  Location     Type
  2161 ;;                  2  523[None  ] int 
  2162 ;; Registers used:
  2163 ;;		wreg, fsr0l, fsr0h, fsr1l, fsr1h, status,2, status,0, pclath, cstack
  2164 ;; Tracked objects:
  2165 ;;		On entry : B1F/0
  2166 ;;		On exit  : 0/0
  2167 ;;		Unchanged: 0/0
  2168 ;; Data sizes:     COMMON   BANK0   BANK1   BANK2   BANK3   BANK4   BANK5   BANK6
  2169 ;;      Params:         0       0       0       0       0       0       0       0
  2170 ;;      Locals:         0       0       0       0       0       0       0       0
  2171 ;;      Temps:          0       0       0       0       0       0       0       0
  2172 ;;      Totals:         0       0       0       0       0       0       0       0
  2173 ;;Total ram usage:        0 bytes
  2174 ;; Hardware stack levels required when called: 7
  2175 ;; This function calls:
  2176 ;;		_Exception_handling
  2177 ;;		_LED_output
  2178 ;;		_LoBeam_ON
  2179 ;;		_POS_ON
  2180 ;;		_SYSTEM_Initialize
  2181 ;;		_TMR0_SetInterruptHandler
  2182 ;;		_check_input
  2183 ;;		_getFrameData
  2184 ;; This function is called by:
  2185 ;;		Startup code after reset
  2186 ;; This function uses a non-reentrant model
  2187 ;;
  2188                           
  2189     030E                     _main:	
  2190                           ;psect for function _main
  2191                           
  2192     030E                     l2551:	
  2193                           ;incstack = 0
  2194                           ; Regs used in _main: [wreg-fsr1h+status,2+status,0+pclath+cstack]
  2195                           
  2196                           
  2197                           ;main.c: 662:   SYSTEM_Initialize();
  2198     030E  3184  241B  3183   	fcall	_SYSTEM_Initialize
  2199                           
  2200                           ;main.c: 663:   TMR0_SetInterruptHandler(TMR0_EvenHandler);
  2201     0311  3060               	movlw	low _TMR0_EvenHandler
  2202     0312  0020               	movlb	0	; select bank0
  2203     0313  00C5               	movwf	TMR0_SetInterruptHandler@InterruptHandler
  2204     0314  3004               	movlw	high _TMR0_EvenHandler
  2205     0315  00C6               	movwf	TMR0_SetInterruptHandler@InterruptHandler+1
  2206     0316  3184  24CF  3183   	fcall	_TMR0_SetInterruptHandler
  2207     0319                     l2553:
  2208     0319  0022               	movlb	2	; select bank2
  2209     031A  100D               	bcf	13,0	;volatile
  2210     031B                     l2555:
  2211                           
  2212                           ;main.c: 665:   CCPR1L = 0;
  2213     031B  0025               	movlb	5	; select bank5
  2214     031C  0191               	clrf	17	;volatile
  2215     031D                     l2557:
  2216                           
  2217                           ;main.c: 671:   (INTCONbits.GIE = 1);
  2218     031D  178B               	bsf	11,7	;volatile
  2219     031E                     l2559:
  2220                           
  2221                           ;main.c: 674:   (INTCONbits.PEIE = 1);
  2222     031E  170B               	bsf	11,6	;volatile
  2223     031F                     l2561:
  2224                           
  2225                           ;main.c: 683:   if(PORTBbits.RB3==0)
  2226     031F  0020               	movlb	0	; select bank0
  2227     0320  198D               	btfsc	13,3	;volatile
  2228     0321  2B23               	goto	u3031
  2229     0322  2B24               	goto	u3030
  2230     0323                     u3031:
  2231     0323  2B26               	goto	l526
  2232     0324                     u3030:
  2233     0324                     l2563:
  2234                           
  2235                           ;main.c: 684:     fLampSide=0;
  2236     0324  01BC               	clrf	_fLampSide
  2237     0325  2B28               	goto	l2565
  2238     0326                     l526:	
  2239                           ;main.c: 685:   else
  2240                           
  2241                           
  2242                           ;main.c: 686:     fLampSide= 1;
  2243     0326  01BC               	clrf	_fLampSide
  2244     0327  0ABC               	incf	_fLampSide,f
  2245     0328                     l2565:
  2246                           
  2247                           ;main.c: 689:     getFrameData();
  2248     0328  3182  229D  3183   	fcall	_getFrameData
  2249     032B                     l2567:
  2250                           
  2251                           ;main.c: 690:     check_input();
  2252     032B  3183  238F  3183   	fcall	_check_input
  2253     032E                     l2569:
  2254                           
  2255                           ;main.c: 692:     Exception_handling();
  2256     032E  3183  23FE  3183   	fcall	_Exception_handling
  2257     0331                     l2571:
  2258                           
  2259                           ;main.c: 693:     if (fException2 == 0) {
  2260     0331  0020               	movlb	0	; select bank0
  2261     0332  083D               	movf	_fException2,w
  2262     0333  1D03               	btfss	3,2
  2263     0334  2B36               	goto	u3041
  2264     0335  2B37               	goto	u3040
  2265     0336                     u3041:
  2266     0336  2B42               	goto	l2579
  2267     0337                     u3040:
  2268     0337                     l2573:
  2269                           
  2270                           ;main.c: 694:       if (fException == 1) {
  2271     0337  033E               	decf	_fException,w
  2272     0338  1D03               	btfss	3,2
  2273     0339  2B3B               	goto	u3051
  2274     033A  2B3C               	goto	u3050
  2275     033B                     u3051:
  2276     033B  2B3E               	goto	l2577
  2277     033C                     u3050:
  2278     033C                     l2575:
  2279                           
  2280                           ;main.c: 696:         fException = 0;
  2281     033C  01BE               	clrf	_fException
  2282                           
  2283                           ;main.c: 697:       } else
  2284     033D  2B28               	goto	l2565
  2285     033E                     l2577:
  2286                           
  2287                           ;main.c: 698:         LED_output();
  2288     033E  3180  2046  3183   	fcall	_LED_output
  2289     0341  2B28               	goto	l2565
  2290     0342                     l2579:
  2291                           
  2292                           ;main.c: 701:       fException2 = 0;
  2293     0342  01BD               	clrf	_fException2
  2294     0343                     l2581:
  2295     0343  0022               	movlb	2	; select bank2
  2296     0344  148C               	bsf	12,1	;volatile
  2297     0345                     l2583:
  2298     0345  100C               	bcf	12,0	;volatile
  2299     0346                     l2585:
  2300                           
  2301                           ;main.c: 704:       LoBeam_ON();
  2302     0346  3184  24D5  3183   	fcall	_LoBeam_ON
  2303     0349                     l2587:
  2304                           
  2305                           ;main.c: 705:       POS_ON();
  2306     0349  3184  24DB  3183   	fcall	_POS_ON
  2307     034C  2B28               	goto	l2565
  2308     034D  3180  2826         	ljmp	start
  2309     034F                     __end_of_main:
  2310                           
  2311                           	psect	text1
  2312     029D                     __ptext1:	
  2313 ;; *************** function _getFrameData *****************
  2314 ;; Defined at:
  2315 ;;		line 509 in file "main.c"
  2316 ;; Parameters:    Size  Location     Type
  2317 ;;		None
  2318 ;; Auto vars:     Size  Location     Type
  2319 ;;		None
  2320 ;; Return value:  Size  Location     Type
  2321 ;;                  1    wreg      void 
  2322 ;; Registers used:
  2323 ;;		wreg, fsr0l, fsr0h, status,2, status,0
  2324 ;; Tracked objects:
  2325 ;;		On entry : 0/0
  2326 ;;		On exit  : 0/0
  2327 ;;		Unchanged: 0/0
  2328 ;; Data sizes:     COMMON   BANK0   BANK1   BANK2   BANK3   BANK4   BANK5   BANK6
  2329 ;;      Params:         0       0       0       0       0       0       0       0
  2330 ;;      Locals:         0       0       0       0       0       0       0       0
  2331 ;;      Temps:          0       0       0       0       0       0       0       0
  2332 ;;      Totals:         0       0       0       0       0       0       0       0
  2333 ;;Total ram usage:        0 bytes
  2334 ;; Hardware stack levels used: 1
  2335 ;; Hardware stack levels required when called: 4
  2336 ;; This function calls:
  2337 ;;		Nothing
  2338 ;; This function is called by:
  2339 ;;		_main
  2340 ;; This function uses a non-reentrant model
  2341 ;;
  2342                           
  2343     029D                     _getFrameData:	
  2344                           ;psect for function _getFrameData
  2345                           
  2346     029D                     l2505:	
  2347                           ;incstack = 0
  2348                           ; Regs used in _getFrameData: [wreg-fsr0h+status,2+status,0]
  2349                           
  2350                           
  2351                           ;main.c: 510:   if (data_1byte_OK == 1) {
  2352     029D  0020               	movlb	0	; select bank0
  2353     029E  0344               	decf	_data_1byte_OK,w	;volatile
  2354     029F  1D03               	btfss	3,2
  2355     02A0  2AA2               	goto	u3001
  2356     02A1  2AA3               	goto	u3000
  2357     02A2                     u3001:
  2358     02A2  2B0D               	goto	l468
  2359     02A3                     u3000:
  2360     02A3                     l2507:
  2361                           
  2362                           ;main.c: 511:     data_1byte_OK = 0;
  2363     02A3  01C4               	clrf	_data_1byte_OK	;volatile
  2364                           
  2365                           ;main.c: 514:     switch (step) {
  2366     02A4  2AEA               	goto	l2549
  2367     02A5                     l2509:
  2368                           
  2369                           ;main.c: 516:       if (rx_data == 0xC8) {
  2370     02A5  30C8               	movlw	200
  2371     02A6  0674               	xorwf	_rx_data,w
  2372     02A7  1D03               	btfss	3,2
  2373     02A8  2AAA               	goto	u3011
  2374     02A9  2AAB               	goto	u3010
  2375     02AA                     u3011:
  2376     02AA  2AB0               	goto	l2515
  2377     02AB                     u3010:
  2378     02AB                     l2511:
  2379                           
  2380                           ;main.c: 517:         step = 1;
  2381     02AB  01C2               	clrf	_step
  2382     02AC  0AC2               	incf	_step,f
  2383     02AD                     l2513:
  2384                           
  2385                           ;main.c: 518:         data_buf[0] = rx_data;
  2386     02AD  0874               	movf	_rx_data,w
  2387     02AE  00A0               	movwf	_data_buf
  2388                           
  2389                           ;main.c: 519:       } else {
  2390     02AF  2B0D               	goto	l468
  2391     02B0                     l2515:
  2392                           
  2393                           ;main.c: 520:         step = 0;
  2394     02B0  01C2               	clrf	_step
  2395     02B1  2B0D               	goto	l468
  2396     02B2                     l2517:
  2397                           
  2398                           ;main.c: 524:       if (rx_data == 0x8B) {
  2399     02B2  308B               	movlw	139
  2400     02B3  0674               	xorwf	_rx_data,w
  2401     02B4  1D03               	btfss	3,2
  2402     02B5  2AB7               	goto	u3021
  2403     02B6  2AB8               	goto	u3020
  2404     02B7                     u3021:
  2405     02B7  2AB0               	goto	l2515
  2406     02B8                     u3020:
  2407     02B8                     l2519:
  2408                           
  2409                           ;main.c: 525:         data_buf[1] = rx_data;
  2410     02B8  0874               	movf	_rx_data,w
  2411     02B9  00A1               	movwf	_data_buf+1
  2412                           
  2413                           ;main.c: 526:         step = 2;
  2414     02BA  3002               	movlw	2
  2415     02BB  00C2               	movwf	_step
  2416                           
  2417                           ;main.c: 527:       } else {
  2418     02BC  2B0D               	goto	l468
  2419     02BD                     l2523:
  2420                           
  2421                           ;main.c: 532:       data_buf[2] = rx_data;
  2422     02BD  0874               	movf	_rx_data,w
  2423     02BE  00A2               	movwf	_data_buf+2
  2424                           
  2425                           ;main.c: 533:       step = 3;
  2426     02BF  3003               	movlw	3
  2427     02C0  00C2               	movwf	_step
  2428                           
  2429                           ;main.c: 534:       break;
  2430     02C1  2B0D               	goto	l468
  2431     02C2                     l2525:
  2432                           
  2433                           ;main.c: 536:       data_buf[3] = rx_data;
  2434     02C2  0874               	movf	_rx_data,w
  2435     02C3  00A3               	movwf	_data_buf+3
  2436                           
  2437                           ;main.c: 537:       step = 4;
  2438     02C4  3004               	movlw	4
  2439     02C5  00C2               	movwf	_step
  2440                           
  2441                           ;main.c: 538:       break;
  2442     02C6  2B0D               	goto	l468
  2443     02C7                     l2527:
  2444                           
  2445                           ;main.c: 540:       data_buf[4] = rx_data;
  2446     02C7  0874               	movf	_rx_data,w
  2447     02C8  00A4               	movwf	_data_buf+4
  2448                           
  2449                           ;main.c: 541:       step = 5;
  2450     02C9  3005               	movlw	5
  2451     02CA  00C2               	movwf	_step
  2452                           
  2453                           ;main.c: 542:       break;
  2454     02CB  2B0D               	goto	l468
  2455     02CC                     l2529:
  2456                           
  2457                           ;main.c: 544:       data_buf[5] = rx_data;
  2458     02CC  0874               	movf	_rx_data,w
  2459     02CD  00A5               	movwf	_data_buf+5
  2460                           
  2461                           ;main.c: 545:       step = 6;
  2462     02CE  3006               	movlw	6
  2463     02CF  00C2               	movwf	_step
  2464                           
  2465                           ;main.c: 546:       break;
  2466     02D0  2B0D               	goto	l468
  2467     02D1                     l2531:
  2468                           
  2469                           ;main.c: 548:       data_buf[6] = rx_data;
  2470     02D1  0874               	movf	_rx_data,w
  2471     02D2  00A6               	movwf	_data_buf+6
  2472                           
  2473                           ;main.c: 549:       step = 7;
  2474     02D3  3007               	movlw	7
  2475     02D4  00C2               	movwf	_step
  2476                           
  2477                           ;main.c: 550:       break;
  2478     02D5  2B0D               	goto	l468
  2479     02D6                     l2533:
  2480                           
  2481                           ;main.c: 552:       data_buf[7] = rx_data;
  2482     02D6  0874               	movf	_rx_data,w
  2483     02D7  00A7               	movwf	_data_buf+7
  2484                           
  2485                           ;main.c: 553:       step = 8;
  2486     02D8  3008               	movlw	8
  2487     02D9  00C2               	movwf	_step
  2488                           
  2489                           ;main.c: 554:       break;
  2490     02DA  2B0D               	goto	l468
  2491     02DB                     l2535:
  2492                           
  2493                           ;main.c: 556:       data_buf[8] = rx_data;
  2494     02DB  0874               	movf	_rx_data,w
  2495     02DC  00A8               	movwf	_data_buf+8
  2496                           
  2497                           ;main.c: 557:       step = 9;
  2498     02DD  3009               	movlw	9
  2499     02DE  00C2               	movwf	_step
  2500                           
  2501                           ;main.c: 558:       break;
  2502     02DF  2B0D               	goto	l468
  2503     02E0                     l2537:
  2504                           
  2505                           ;main.c: 560:       data_buf[9] = rx_data;
  2506     02E0  0874               	movf	_rx_data,w
  2507     02E1  00A9               	movwf	_data_buf+9
  2508                           
  2509                           ;main.c: 561:       step = 10;
  2510     02E2  300A               	movlw	10
  2511     02E3  00C2               	movwf	_step
  2512                           
  2513                           ;main.c: 562:       break;
  2514     02E4  2B0D               	goto	l468
  2515     02E5                     l2539:
  2516                           
  2517                           ;main.c: 564:       data_buf[10] = rx_data;
  2518     02E5  0874               	movf	_rx_data,w
  2519     02E6  00AA               	movwf	_data_buf+10
  2520     02E7                     l2541:
  2521                           
  2522                           ;main.c: 565:       fFrame_OK = 1;
  2523     02E7  01C3               	clrf	_fFrame_OK
  2524     02E8  0AC3               	incf	_fFrame_OK,f
  2525     02E9  2AB0               	goto	l2515
  2526     02EA                     l2549:
  2527     02EA  0842               	movf	_step,w
  2528                           
  2529                           ; Switch size 1, requested type "simple"
  2530                           ; Number of cases is 11, Range of values is 0 to 10
  2531                           ; switch strategies available:
  2532                           ; Name         Instructions Cycles
  2533                           ; direct_byte           28     6 (fixed)
  2534                           ; simple_byte           34    18 (average)
  2535                           ; jumptable            260     6 (fixed)
  2536                           ;	Chosen strategy is simple_byte
  2537     02EB  3A00               	xorlw	0	; case 0
  2538     02EC  1903               	skipnz
  2539     02ED  2AA5               	goto	l2509
  2540     02EE  3A01               	xorlw	1	; case 1
  2541     02EF  1903               	skipnz
  2542     02F0  2AB2               	goto	l2517
  2543     02F1  3A03               	xorlw	3	; case 2
  2544     02F2  1903               	skipnz
  2545     02F3  2ABD               	goto	l2523
  2546     02F4  3A01               	xorlw	1	; case 3
  2547     02F5  1903               	skipnz
  2548     02F6  2AC2               	goto	l2525
  2549     02F7  3A07               	xorlw	7	; case 4
  2550     02F8  1903               	skipnz
  2551     02F9  2AC7               	goto	l2527
  2552     02FA  3A01               	xorlw	1	; case 5
  2553     02FB  1903               	skipnz
  2554     02FC  2ACC               	goto	l2529
  2555     02FD  3A03               	xorlw	3	; case 6
  2556     02FE  1903               	skipnz
  2557     02FF  2AD1               	goto	l2531
  2558     0300  3A01               	xorlw	1	; case 7
  2559     0301  1903               	skipnz
  2560     0302  2AD6               	goto	l2533
  2561     0303  3A0F               	xorlw	15	; case 8
  2562     0304  1903               	skipnz
  2563     0305  2ADB               	goto	l2535
  2564     0306  3A01               	xorlw	1	; case 9
  2565     0307  1903               	skipnz
  2566     0308  2AE0               	goto	l2537
  2567     0309  3A03               	xorlw	3	; case 10
  2568     030A  1903               	skipnz
  2569     030B  2AE5               	goto	l2539
  2570     030C  2AB0               	goto	l2515
  2571     030D                     l468:
  2572     030D  0008               	return
  2573     030E                     __end_of_getFrameData:
  2574                           
  2575                           	psect	text2
  2576     038F                     __ptext2:	
  2577 ;; *************** function _check_input *****************
  2578 ;; Defined at:
  2579 ;;		line 467 in file "main.c"
  2580 ;; Parameters:    Size  Location     Type
  2581 ;;		None
  2582 ;; Auto vars:     Size  Location     Type
  2583 ;;		None
  2584 ;; Return value:  Size  Location     Type
  2585 ;;                  1    wreg      void 
  2586 ;; Registers used:
  2587 ;;		wreg, status,2
  2588 ;; Tracked objects:
  2589 ;;		On entry : 0/0
  2590 ;;		On exit  : 0/0
  2591 ;;		Unchanged: 0/0
  2592 ;; Data sizes:     COMMON   BANK0   BANK1   BANK2   BANK3   BANK4   BANK5   BANK6
  2593 ;;      Params:         0       0       0       0       0       0       0       0
  2594 ;;      Locals:         0       0       0       0       0       0       0       0
  2595 ;;      Temps:          0       0       0       0       0       0       0       0
  2596 ;;      Totals:         0       0       0       0       0       0       0       0
  2597 ;;Total ram usage:        0 bytes
  2598 ;; Hardware stack levels used: 1
  2599 ;; Hardware stack levels required when called: 4
  2600 ;; This function calls:
  2601 ;;		Nothing
  2602 ;; This function is called by:
  2603 ;;		_main
  2604 ;; This function uses a non-reentrant model
  2605 ;;
  2606                           
  2607     038F                     _check_input:	
  2608                           ;psect for function _check_input
  2609                           
  2610     038F                     l2487:	
  2611                           ;incstack = 0
  2612                           ; Regs used in _check_input: [wreg+status,2]
  2613                           
  2614                           
  2615                           ;main.c: 468:   D2.Byte = data_buf[2];
  2616     038F  0020               	movlb	0	; select bank0
  2617     0390  0822               	movf	_data_buf+2,w
  2618     0391  00F3               	movwf	_D2
  2619                           
  2620                           ;main.c: 469:   D3.Byte = data_buf[3];
  2621     0392  0823               	movf	_data_buf+3,w
  2622     0393  00C1               	movwf	_D3
  2623     0394                     l2489:
  2624                           
  2625                           ;main.c: 470:   csFlag.Byte = 0;
  2626     0394  01C0               	clrf	_csFlag
  2627     0395                     l2491:
  2628                           
  2629                           ;main.c: 473:   if (D2.POS == 1)
  2630     0395  1D73               	btfss	_D2,2
  2631     0396  2B98               	goto	u2941
  2632     0397  2B99               	goto	u2940
  2633     0398                     u2941:
  2634     0398  2B9B               	goto	l434
  2635     0399                     u2940:
  2636     0399                     l2493:
  2637                           
  2638                           ;main.c: 474:     csFlag.POS = 1;
  2639     0399  16C0               	bsf	_csFlag,5
  2640     039A  2B9C               	goto	l435
  2641     039B                     l434:	
  2642                           ;main.c: 475:   else
  2643                           
  2644                           
  2645                           ;main.c: 476:     csFlag.POS = 0;
  2646     039B  12C0               	bcf	_csFlag,5
  2647     039C                     l435:
  2648                           
  2649                           ;main.c: 479:   if (D2.DRL == 1)
  2650     039C  1DF3               	btfss	_D2,3
  2651     039D  2B9F               	goto	u2951
  2652     039E  2BA0               	goto	u2950
  2653     039F                     u2951:
  2654     039F  2BA2               	goto	l436
  2655     03A0                     u2950:
  2656     03A0                     l2495:
  2657                           
  2658                           ;main.c: 480:     csFlag.DRL = 1;
  2659     03A0  1640               	bsf	_csFlag,4
  2660     03A1  2BA3               	goto	l437
  2661     03A2                     l436:	
  2662                           ;main.c: 481:   else
  2663                           
  2664                           
  2665                           ;main.c: 482:     csFlag.DRL = 0;
  2666     03A2  1240               	bcf	_csFlag,4
  2667     03A3                     l437:
  2668                           
  2669                           ;main.c: 485:   if (D2.LoBeam == 1)
  2670     03A3  1E73               	btfss	_D2,4
  2671     03A4  2BA6               	goto	u2961
  2672     03A5  2BA7               	goto	u2960
  2673     03A6                     u2961:
  2674     03A6  2BA9               	goto	l438
  2675     03A7                     u2960:
  2676     03A7                     l2497:
  2677                           
  2678                           ;main.c: 486:     csFlag.LoBeam = 1;
  2679     03A7  15C0               	bsf	_csFlag,3
  2680     03A8  2BAA               	goto	l439
  2681     03A9                     l438:	
  2682                           ;main.c: 487:   else
  2683                           
  2684                           
  2685                           ;main.c: 488:     csFlag.LoBeam = 0;
  2686     03A9  11C0               	bcf	_csFlag,3
  2687     03AA                     l439:
  2688                           
  2689                           ;main.c: 491:   if (D2.HiBeam == 1)
  2690     03AA  1EF3               	btfss	_D2,5
  2691     03AB  2BAD               	goto	u2971
  2692     03AC  2BAE               	goto	u2970
  2693     03AD                     u2971:
  2694     03AD  2BB0               	goto	l440
  2695     03AE                     u2970:
  2696     03AE                     l2499:
  2697                           
  2698                           ;main.c: 492:     csFlag.HiBeam = 1;
  2699     03AE  1540               	bsf	_csFlag,2
  2700     03AF  2BB1               	goto	l441
  2701     03B0                     l440:	
  2702                           ;main.c: 493:   else
  2703                           
  2704                           
  2705                           ;main.c: 494:     csFlag.HiBeam = 0;
  2706     03B0  1140               	bcf	_csFlag,2
  2707     03B1                     l441:
  2708                           
  2709                           ;main.c: 497:   if (D3.turnLight_L == 1)
  2710     03B1  1EC1               	btfss	_D3,5
  2711     03B2  2BB4               	goto	u2981
  2712     03B3  2BB5               	goto	u2980
  2713     03B4                     u2981:
  2714     03B4  2BB7               	goto	l442
  2715     03B5                     u2980:
  2716     03B5                     l2501:
  2717                           
  2718                           ;main.c: 498:     csFlag.turnLight_L = 1;
  2719     03B5  14C0               	bsf	_csFlag,1
  2720     03B6  2BB8               	goto	l443
  2721     03B7                     l442:	
  2722                           ;main.c: 499:   else
  2723                           
  2724                           
  2725                           ;main.c: 500:     csFlag.turnLight_L = 0;
  2726     03B7  10C0               	bcf	_csFlag,1
  2727     03B8                     l443:
  2728                           
  2729                           ;main.c: 503:   if (D3.turnLight_R == 1)
  2730     03B8  1F41               	btfss	_D3,6
  2731     03B9  2BBB               	goto	u2991
  2732     03BA  2BBC               	goto	u2990
  2733     03BB                     u2991:
  2734     03BB  2BBE               	goto	l444
  2735     03BC                     u2990:
  2736     03BC                     l2503:
  2737                           
  2738                           ;main.c: 504:     csFlag.turnLight_R = 1;
  2739     03BC  1440               	bsf	_csFlag,0
  2740     03BD  2BBF               	goto	l446
  2741     03BE                     l444:	
  2742                           ;main.c: 505:   else
  2743                           
  2744                           
  2745                           ;main.c: 506:     csFlag.turnLight_R = 0;
  2746     03BE  1040               	bcf	_csFlag,0
  2747     03BF                     l446:
  2748     03BF  0008               	return
  2749     03C0                     __end_of_check_input:
  2750                           
  2751                           	psect	text3
  2752     041B                     __ptext3:	
  2753 ;; *************** function _SYSTEM_Initialize *****************
  2754 ;; Defined at:
  2755 ;;		line 50 in file "mcc_generated_files/mcc.c"
  2756 ;; Parameters:    Size  Location     Type
  2757 ;;		None
  2758 ;; Auto vars:     Size  Location     Type
  2759 ;;		None
  2760 ;; Return value:  Size  Location     Type
  2761 ;;                  1    wreg      void 
  2762 ;; Registers used:
  2763 ;;		wreg, status,2, status,0, pclath, cstack
  2764 ;; Tracked objects:
  2765 ;;		On entry : 0/0
  2766 ;;		On exit  : 0/0
  2767 ;;		Unchanged: 0/0
  2768 ;; Data sizes:     COMMON   BANK0   BANK1   BANK2   BANK3   BANK4   BANK5   BANK6
  2769 ;;      Params:         0       0       0       0       0       0       0       0
  2770 ;;      Locals:         0       0       0       0       0       0       0       0
  2771 ;;      Temps:          0       0       0       0       0       0       0       0
  2772 ;;      Totals:         0       0       0       0       0       0       0       0
  2773 ;;Total ram usage:        0 bytes
  2774 ;; Hardware stack levels used: 1
  2775 ;; Hardware stack levels required when called: 6
  2776 ;; This function calls:
  2777 ;;		_ECCP3_Initialize
  2778 ;;		_EPWM1_Initialize
  2779 ;;		_OSCILLATOR_Initialize
  2780 ;;		_PIN_MANAGER_Initialize
  2781 ;;		_TMR0_Initialize
  2782 ;;		_TMR1_Initialize
  2783 ;;		_TMR2_Initialize
  2784 ;;		_WDT_Initialize
  2785 ;; This function is called by:
  2786 ;;		_main
  2787 ;; This function uses a non-reentrant model
  2788 ;;
  2789                           
  2790     041B                     _SYSTEM_Initialize:	
  2791                           ;psect for function _SYSTEM_Initialize
  2792                           
  2793     041B                     l2293:	
  2794                           ;incstack = 0
  2795                           ; Regs used in _SYSTEM_Initialize: [wreg+status,2+status,0+pclath+cstack]
  2796                           
  2797                           
  2798                           ;mcc_generated_files/mcc.c: 53:     PIN_MANAGER_Initialize();
  2799     041B  3183  23E0  3184   	fcall	_PIN_MANAGER_Initialize
  2800                           
  2801                           ;mcc_generated_files/mcc.c: 54:     OSCILLATOR_Initialize();
  2802     041E  3184  24A5  3184   	fcall	_OSCILLATOR_Initialize
  2803                           
  2804                           ;mcc_generated_files/mcc.c: 55:     WDT_Initialize();
  2805     0421  3184  24E1  3184   	fcall	_WDT_Initialize
  2806                           
  2807                           ;mcc_generated_files/mcc.c: 56:     EPWM1_Initialize();
  2808     0424  3184  248B  3184   	fcall	_EPWM1_Initialize
  2809                           
  2810                           ;mcc_generated_files/mcc.c: 57:     ECCP3_Initialize();
  2811     0427  3184  24B1  3184   	fcall	_ECCP3_Initialize
  2812                           
  2813                           ;mcc_generated_files/mcc.c: 58:     TMR2_Initialize();
  2814     042A  3184  24BB  3184   	fcall	_TMR2_Initialize
  2815                           
  2816                           ;mcc_generated_files/mcc.c: 59:     TMR1_Initialize();
  2817     042D  3184  247E  3184   	fcall	_TMR1_Initialize
  2818                           
  2819                           ;mcc_generated_files/mcc.c: 60:     TMR0_Initialize();
  2820     0430  3184  244C  3184   	fcall	_TMR0_Initialize
  2821     0433                     l29:
  2822     0433  0008               	return
  2823     0434                     __end_of_SYSTEM_Initialize:
  2824                           
  2825                           	psect	text4
  2826     04E1                     __ptext4:	
  2827 ;; *************** function _WDT_Initialize *****************
  2828 ;; Defined at:
  2829 ;;		line 77 in file "mcc_generated_files/mcc.c"
  2830 ;; Parameters:    Size  Location     Type
  2831 ;;		None
  2832 ;; Auto vars:     Size  Location     Type
  2833 ;;		None
  2834 ;; Return value:  Size  Location     Type
  2835 ;;                  1    wreg      void 
  2836 ;; Registers used:
  2837 ;;		wreg
  2838 ;; Tracked objects:
  2839 ;;		On entry : 0/0
  2840 ;;		On exit  : 0/0
  2841 ;;		Unchanged: 0/0
  2842 ;; Data sizes:     COMMON   BANK0   BANK1   BANK2   BANK3   BANK4   BANK5   BANK6
  2843 ;;      Params:         0       0       0       0       0       0       0       0
  2844 ;;      Locals:         0       0       0       0       0       0       0       0
  2845 ;;      Temps:          0       0       0       0       0       0       0       0
  2846 ;;      Totals:         0       0       0       0       0       0       0       0
  2847 ;;Total ram usage:        0 bytes
  2848 ;; Hardware stack levels used: 1
  2849 ;; Hardware stack levels required when called: 4
  2850 ;; This function calls:
  2851 ;;		Nothing
  2852 ;; This function is called by:
  2853 ;;		_SYSTEM_Initialize
  2854 ;; This function uses a non-reentrant model
  2855 ;;
  2856                           
  2857     04E1                     _WDT_Initialize:	
  2858                           ;psect for function _WDT_Initialize
  2859                           
  2860     04E1                     l2225:	
  2861                           ;incstack = 0
  2862                           ; Regs used in _WDT_Initialize: [wreg]
  2863                           
  2864                           
  2865                           ;mcc_generated_files/mcc.c: 80:     WDTCON = 0x16;
  2866     04E1  3016               	movlw	22
  2867     04E2  0021               	movlb	1	; select bank1
  2868     04E3  0097               	movwf	23	;volatile
  2869     04E4                     l38:
  2870     04E4  0008               	return
  2871     04E5                     __end_of_WDT_Initialize:
  2872                           
  2873                           	psect	text5
  2874     04BB                     __ptext5:	
  2875 ;; *************** function _TMR2_Initialize *****************
  2876 ;; Defined at:
  2877 ;;		line 62 in file "mcc_generated_files/tmr2.c"
  2878 ;; Parameters:    Size  Location     Type
  2879 ;;		None
  2880 ;; Auto vars:     Size  Location     Type
  2881 ;;		None
  2882 ;; Return value:  Size  Location     Type
  2883 ;;                  1    wreg      void 
  2884 ;; Registers used:
  2885 ;;		wreg, status,2
  2886 ;; Tracked objects:
  2887 ;;		On entry : 0/0
  2888 ;;		On exit  : 0/0
  2889 ;;		Unchanged: 0/0
  2890 ;; Data sizes:     COMMON   BANK0   BANK1   BANK2   BANK3   BANK4   BANK5   BANK6
  2891 ;;      Params:         0       0       0       0       0       0       0       0
  2892 ;;      Locals:         0       0       0       0       0       0       0       0
  2893 ;;      Temps:          0       0       0       0       0       0       0       0
  2894 ;;      Totals:         0       0       0       0       0       0       0       0
  2895 ;;Total ram usage:        0 bytes
  2896 ;; Hardware stack levels used: 1
  2897 ;; Hardware stack levels required when called: 4
  2898 ;; This function calls:
  2899 ;;		Nothing
  2900 ;; This function is called by:
  2901 ;;		_SYSTEM_Initialize
  2902 ;; This function uses a non-reentrant model
  2903 ;;
  2904                           
  2905     04BB                     _TMR2_Initialize:	
  2906                           ;psect for function _TMR2_Initialize
  2907                           
  2908     04BB                     l2251:	
  2909                           ;incstack = 0
  2910                           ; Regs used in _TMR2_Initialize: [wreg+status,2]
  2911                           
  2912                           
  2913                           ;mcc_generated_files/tmr2.c: 67:     PR2 = 0xC8;
  2914     04BB  30C8               	movlw	200
  2915     04BC  0020               	movlb	0	; select bank0
  2916     04BD  009B               	movwf	27	;volatile
  2917     04BE                     l2253:
  2918                           
  2919                           ;mcc_generated_files/tmr2.c: 70:     TMR2 = 0x00;
  2920     04BE  019A               	clrf	26	;volatile
  2921     04BF                     l2255:
  2922                           
  2923                           ;mcc_generated_files/tmr2.c: 73:     PIR1bits.TMR2IF = 0;
  2924     04BF  1091               	bcf	17,1	;volatile
  2925     04C0                     l2257:
  2926                           
  2927                           ;mcc_generated_files/tmr2.c: 76:     T2CON = 0x07;
  2928     04C0  3007               	movlw	7
  2929     04C1  009C               	movwf	28	;volatile
  2930     04C2                     l195:
  2931     04C2  0008               	return
  2932     04C3                     __end_of_TMR2_Initialize:
  2933                           
  2934                           	psect	text6
  2935     047E                     __ptext6:	
  2936 ;; *************** function _TMR1_Initialize *****************
  2937 ;; Defined at:
  2938 ;;		line 63 in file "mcc_generated_files/tmr1.c"
  2939 ;; Parameters:    Size  Location     Type
  2940 ;;		None
  2941 ;; Auto vars:     Size  Location     Type
  2942 ;;		None
  2943 ;; Return value:  Size  Location     Type
  2944 ;;                  1    wreg      void 
  2945 ;; Registers used:
  2946 ;;		wreg, status,2
  2947 ;; Tracked objects:
  2948 ;;		On entry : 0/0
  2949 ;;		On exit  : 0/0
  2950 ;;		Unchanged: 0/0
  2951 ;; Data sizes:     COMMON   BANK0   BANK1   BANK2   BANK3   BANK4   BANK5   BANK6
  2952 ;;      Params:         0       0       0       0       0       0       0       0
  2953 ;;      Locals:         0       0       0       0       0       0       0       0
  2954 ;;      Temps:          0       0       0       0       0       0       0       0
  2955 ;;      Totals:         0       0       0       0       0       0       0       0
  2956 ;;Total ram usage:        0 bytes
  2957 ;; Hardware stack levels used: 1
  2958 ;; Hardware stack levels required when called: 4
  2959 ;; This function calls:
  2960 ;;		Nothing
  2961 ;; This function is called by:
  2962 ;;		_SYSTEM_Initialize
  2963 ;; This function uses a non-reentrant model
  2964 ;;
  2965                           
  2966     047E                     _TMR1_Initialize:	
  2967                           ;psect for function _TMR1_Initialize
  2968                           
  2969     047E                     l2259:	
  2970                           ;incstack = 0
  2971                           ; Regs used in _TMR1_Initialize: [wreg+status,2]
  2972                           
  2973                           
  2974                           ;mcc_generated_files/tmr1.c: 68:     T1GCON = 0x10;
  2975     047E  3010               	movlw	16
  2976     047F  0020               	movlb	0	; select bank0
  2977     0480  0099               	movwf	25	;volatile
  2978     0481                     l2261:
  2979                           
  2980                           ;mcc_generated_files/tmr1.c: 71:     TMR1H = 0x00;
  2981     0481  0197               	clrf	23	;volatile
  2982     0482                     l2263:
  2983                           
  2984                           ;mcc_generated_files/tmr1.c: 74:     TMR1L = 0x00;
  2985     0482  0196               	clrf	22	;volatile
  2986     0483                     l2265:
  2987                           
  2988                           ;mcc_generated_files/tmr1.c: 77:     PIR1bits.TMR1IF = 0;
  2989     0483  1011               	bcf	17,0	;volatile
  2990                           
  2991                           ;mcc_generated_files/tmr1.c: 80:     timer1ReloadVal=(uint16_t)((TMR1H << 8) | TMR1L);
  2992     0484  0817               	movf	23,w	;volatile
  2993     0485  00B6               	movwf	_timer1ReloadVal+1	;volatile
  2994     0486  0816               	movf	22,w	;volatile
  2995     0487  00B5               	movwf	_timer1ReloadVal	;volatile
  2996                           
  2997                           ;mcc_generated_files/tmr1.c: 83:     T1CON = 0x01;
  2998     0488  3001               	movlw	1
  2999     0489  0098               	movwf	24	;volatile
  3000     048A                     l78:
  3001     048A  0008               	return
  3002     048B                     __end_of_TMR1_Initialize:
  3003                           
  3004                           	psect	text7
  3005     044C                     __ptext7:	
  3006 ;; *************** function _TMR0_Initialize *****************
  3007 ;; Defined at:
  3008 ;;		line 64 in file "mcc_generated_files/tmr0.c"
  3009 ;; Parameters:    Size  Location     Type
  3010 ;;		None
  3011 ;; Auto vars:     Size  Location     Type
  3012 ;;		None
  3013 ;; Return value:  Size  Location     Type
  3014 ;;                  1    wreg      void 
  3015 ;; Registers used:
  3016 ;;		wreg, status,2, status,0, pclath, cstack
  3017 ;; Tracked objects:
  3018 ;;		On entry : 0/0
  3019 ;;		On exit  : 0/0
  3020 ;;		Unchanged: 0/0
  3021 ;; Data sizes:     COMMON   BANK0   BANK1   BANK2   BANK3   BANK4   BANK5   BANK6
  3022 ;;      Params:         0       0       0       0       0       0       0       0
  3023 ;;      Locals:         0       0       0       0       0       0       0       0
  3024 ;;      Temps:          0       0       0       0       0       0       0       0
  3025 ;;      Totals:         0       0       0       0       0       0       0       0
  3026 ;;Total ram usage:        0 bytes
  3027 ;; Hardware stack levels used: 1
  3028 ;; Hardware stack levels required when called: 5
  3029 ;; This function calls:
  3030 ;;		_TMR0_SetInterruptHandler
  3031 ;; This function is called by:
  3032 ;;		_SYSTEM_Initialize
  3033 ;; This function uses a non-reentrant model
  3034 ;;
  3035                           
  3036     044C                     _TMR0_Initialize:	
  3037                           ;psect for function _TMR0_Initialize
  3038                           
  3039     044C                     l2267:	
  3040                           ;incstack = 0
  3041                           ; Regs used in _TMR0_Initialize: [wreg+status,2+status,0+pclath+cstack]
  3042                           
  3043                           
  3044                           ;mcc_generated_files/tmr0.c: 69:     OPTION_REG = (uint8_t)((OPTION_REG & 0xC0) | (0xD4 
      +                          & 0x3F));
  3045     044C  0021               	movlb	1	; select bank1
  3046     044D  0815               	movf	21,w	;volatile
  3047     044E  39C0               	andlw	192
  3048     044F  3814               	iorlw	20
  3049     0450  0095               	movwf	21	;volatile
  3050     0451                     l2269:
  3051                           
  3052                           ;mcc_generated_files/tmr0.c: 72:     TMR0 = 0x06;
  3053     0451  3006               	movlw	6
  3054     0452  0020               	movlb	0	; select bank0
  3055     0453  0095               	movwf	21	;volatile
  3056     0454                     l2271:
  3057                           
  3058                           ;mcc_generated_files/tmr0.c: 75:     timer0ReloadVal= 6;
  3059     0454  3006               	movlw	6
  3060     0455  00F5               	movwf	_timer0ReloadVal	;volatile
  3061     0456                     l2273:
  3062                           
  3063                           ;mcc_generated_files/tmr0.c: 78:     INTCONbits.TMR0IF = 0;
  3064     0456  110B               	bcf	11,2	;volatile
  3065     0457                     l2275:
  3066                           
  3067                           ;mcc_generated_files/tmr0.c: 81:     INTCONbits.TMR0IE = 1;
  3068     0457  168B               	bsf	11,5	;volatile
  3069     0458                     l2277:
  3070                           
  3071                           ;mcc_generated_files/tmr0.c: 84:     TMR0_SetInterruptHandler(TMR0_DefaultInterruptHandl
      +                          er);
  3072     0458  30E5               	movlw	low _TMR0_DefaultInterruptHandler
  3073     0459  00C5               	movwf	TMR0_SetInterruptHandler@InterruptHandler
  3074     045A  3004               	movlw	high _TMR0_DefaultInterruptHandler
  3075     045B  00C6               	movwf	TMR0_SetInterruptHandler@InterruptHandler+1
  3076     045C  3184  24CF  3184   	fcall	_TMR0_SetInterruptHandler
  3077     045F                     l157:
  3078     045F  0008               	return
  3079     0460                     __end_of_TMR0_Initialize:
  3080                           
  3081                           	psect	text8
  3082     04CF                     __ptext8:	
  3083 ;; *************** function _TMR0_SetInterruptHandler *****************
  3084 ;; Defined at:
  3085 ;;		line 140 in file "mcc_generated_files/tmr0.c"
  3086 ;; Parameters:    Size  Location     Type
  3087 ;;  InterruptHan    2    0[BANK0 ] PTR FTN()void 
  3088 ;;		 -> TMR0_EvenHandler(1), TMR0_DefaultInterruptHandler(1), 
  3089 ;; Auto vars:     Size  Location     Type
  3090 ;;		None
  3091 ;; Return value:  Size  Location     Type
  3092 ;;                  1    wreg      void 
  3093 ;; Registers used:
  3094 ;;		wreg
  3095 ;; Tracked objects:
  3096 ;;		On entry : 0/0
  3097 ;;		On exit  : 0/0
  3098 ;;		Unchanged: 0/0
  3099 ;; Data sizes:     COMMON   BANK0   BANK1   BANK2   BANK3   BANK4   BANK5   BANK6
  3100 ;;      Params:         0       2       0       0       0       0       0       0
  3101 ;;      Locals:         0       0       0       0       0       0       0       0
  3102 ;;      Temps:          0       0       0       0       0       0       0       0
  3103 ;;      Totals:         0       2       0       0       0       0       0       0
  3104 ;;Total ram usage:        2 bytes
  3105 ;; Hardware stack levels used: 1
  3106 ;; Hardware stack levels required when called: 4
  3107 ;; This function calls:
  3108 ;;		Nothing
  3109 ;; This function is called by:
  3110 ;;		_TMR0_Initialize
  3111 ;;		_main
  3112 ;; This function uses a non-reentrant model
  3113 ;;
  3114                           
  3115     04CF                     _TMR0_SetInterruptHandler:	
  3116                           ;psect for function _TMR0_SetInterruptHandler
  3117                           
  3118     04CF                     l2193:	
  3119                           ;incstack = 0
  3120                           ; Regs used in _TMR0_SetInterruptHandler: [wreg]
  3121                           
  3122                           
  3123                           ;mcc_generated_files/tmr0.c: 141:     TMR0_InterruptHandler = InterruptHandler;
  3124     04CF  0020               	movlb	0	; select bank0
  3125     04D0  0846               	movf	TMR0_SetInterruptHandler@InterruptHandler+1,w
  3126     04D1  00B4               	movwf	_TMR0_InterruptHandler+1
  3127     04D2  0845               	movf	TMR0_SetInterruptHandler@InterruptHandler,w
  3128     04D3  00B3               	movwf	_TMR0_InterruptHandler
  3129     04D4                     l179:
  3130     04D4  0008               	return
  3131     04D5                     __end_of_TMR0_SetInterruptHandler:
  3132                           
  3133                           	psect	text9
  3134     03E0                     __ptext9:	
  3135 ;; *************** function _PIN_MANAGER_Initialize *****************
  3136 ;; Defined at:
  3137 ;;		line 55 in file "mcc_generated_files/pin_manager.c"
  3138 ;; Parameters:    Size  Location     Type
  3139 ;;		None
  3140 ;; Auto vars:     Size  Location     Type
  3141 ;;		None
  3142 ;; Return value:  Size  Location     Type
  3143 ;;                  1    wreg      void 
  3144 ;; Registers used:
  3145 ;;		wreg, status,2
  3146 ;; Tracked objects:
  3147 ;;		On entry : 0/0
  3148 ;;		On exit  : 0/0
  3149 ;;		Unchanged: 0/0
  3150 ;; Data sizes:     COMMON   BANK0   BANK1   BANK2   BANK3   BANK4   BANK5   BANK6
  3151 ;;      Params:         0       0       0       0       0       0       0       0
  3152 ;;      Locals:         0       0       0       0       0       0       0       0
  3153 ;;      Temps:          0       0       0       0       0       0       0       0
  3154 ;;      Totals:         0       0       0       0       0       0       0       0
  3155 ;;Total ram usage:        0 bytes
  3156 ;; Hardware stack levels used: 1
  3157 ;; Hardware stack levels required when called: 4
  3158 ;; This function calls:
  3159 ;;		Nothing
  3160 ;; This function is called by:
  3161 ;;		_SYSTEM_Initialize
  3162 ;; This function uses a non-reentrant model
  3163 ;;
  3164                           
  3165     03E0                     _PIN_MANAGER_Initialize:	
  3166                           ;psect for function _PIN_MANAGER_Initialize
  3167                           
  3168     03E0                     l2195:	
  3169                           ;incstack = 0
  3170                           ; Regs used in _PIN_MANAGER_Initialize: [wreg+status,2]
  3171                           
  3172                           
  3173                           ;mcc_generated_files/pin_manager.c: 60:     LATE = 0x00;
  3174     03E0  0022               	movlb	2	; select bank2
  3175     03E1  0190               	clrf	16	;volatile
  3176                           
  3177                           ;mcc_generated_files/pin_manager.c: 61:     LATA = 0x00;
  3178     03E2  018C               	clrf	12	;volatile
  3179     03E3                     l2197:
  3180                           
  3181                           ;mcc_generated_files/pin_manager.c: 62:     LATB = 0x08;
  3182     03E3  3008               	movlw	8
  3183     03E4  008D               	movwf	13	;volatile
  3184     03E5                     l2199:
  3185                           
  3186                           ;mcc_generated_files/pin_manager.c: 63:     LATC = 0x10;
  3187     03E5  3010               	movlw	16
  3188     03E6  008E               	movwf	14	;volatile
  3189     03E7                     l2201:
  3190                           
  3191                           ;mcc_generated_files/pin_manager.c: 68:     TRISE = 0x08;
  3192     03E7  3008               	movlw	8
  3193     03E8  0021               	movlb	1	; select bank1
  3194     03E9  0090               	movwf	16	;volatile
  3195     03EA                     l2203:
  3196                           
  3197                           ;mcc_generated_files/pin_manager.c: 69:     TRISA = 0xBC;
  3198     03EA  30BC               	movlw	188
  3199     03EB  008C               	movwf	12	;volatile
  3200     03EC                     l2205:
  3201                           
  3202                           ;mcc_generated_files/pin_manager.c: 70:     TRISB = 0xFE;
  3203     03EC  30FE               	movlw	254
  3204     03ED  008D               	movwf	13	;volatile
  3205     03EE                     l2207:
  3206                           
  3207                           ;mcc_generated_files/pin_manager.c: 71:     TRISC = 0xFB;
  3208     03EE  30FB               	movlw	251
  3209     03EF  008E               	movwf	14	;volatile
  3210     03F0                     l2209:
  3211                           
  3212                           ;mcc_generated_files/pin_manager.c: 76:     ANSELB = 0x36;
  3213     03F0  3036               	movlw	54
  3214     03F1  0023               	movlb	3	; select bank3
  3215     03F2  008D               	movwf	13	;volatile
  3216     03F3                     l2211:
  3217                           
  3218                           ;mcc_generated_files/pin_manager.c: 77:     ANSELA = 0x3C;
  3219     03F3  303C               	movlw	60
  3220     03F4  008C               	movwf	12	;volatile
  3221                           
  3222                           ;mcc_generated_files/pin_manager.c: 82:     WPUE = 0x00;
  3223     03F5  0024               	movlb	4	; select bank4
  3224     03F6  0190               	clrf	16	;volatile
  3225     03F7                     l2213:
  3226                           
  3227                           ;mcc_generated_files/pin_manager.c: 83:     WPUB = 0x08;
  3228     03F7  3008               	movlw	8
  3229     03F8  008D               	movwf	13	;volatile
  3230     03F9                     l2215:
  3231                           
  3232                           ;mcc_generated_files/pin_manager.c: 84:     OPTION_REGbits.nWPUEN = 0;
  3233     03F9  0021               	movlb	1	; select bank1
  3234     03FA  1395               	bcf	21,7	;volatile
  3235     03FB                     l2217:
  3236                           
  3237                           ;mcc_generated_files/pin_manager.c: 90:     APFCON = 0x00;
  3238     03FB  0022               	movlb	2	; select bank2
  3239     03FC  019D               	clrf	29	;volatile
  3240     03FD                     l135:
  3241     03FD  0008               	return
  3242     03FE                     __end_of_PIN_MANAGER_Initialize:
  3243                           
  3244                           	psect	text10
  3245     04A5                     __ptext10:	
  3246 ;; *************** function _OSCILLATOR_Initialize *****************
  3247 ;; Defined at:
  3248 ;;		line 63 in file "mcc_generated_files/mcc.c"
  3249 ;; Parameters:    Size  Location     Type
  3250 ;;		None
  3251 ;; Auto vars:     Size  Location     Type
  3252 ;;		None
  3253 ;; Return value:  Size  Location     Type
  3254 ;;                  1    wreg      void 
  3255 ;; Registers used:
  3256 ;;		wreg, status,2
  3257 ;; Tracked objects:
  3258 ;;		On entry : 0/0
  3259 ;;		On exit  : 0/0
  3260 ;;		Unchanged: 0/0
  3261 ;; Data sizes:     COMMON   BANK0   BANK1   BANK2   BANK3   BANK4   BANK5   BANK6
  3262 ;;      Params:         0       0       0       0       0       0       0       0
  3263 ;;      Locals:         0       0       0       0       0       0       0       0
  3264 ;;      Temps:          0       0       0       0       0       0       0       0
  3265 ;;      Totals:         0       0       0       0       0       0       0       0
  3266 ;;Total ram usage:        0 bytes
  3267 ;; Hardware stack levels used: 1
  3268 ;; Hardware stack levels required when called: 4
  3269 ;; This function calls:
  3270 ;;		Nothing
  3271 ;; This function is called by:
  3272 ;;		_SYSTEM_Initialize
  3273 ;; This function uses a non-reentrant model
  3274 ;;
  3275                           
  3276     04A5                     _OSCILLATOR_Initialize:	
  3277                           ;psect for function _OSCILLATOR_Initialize
  3278                           
  3279     04A5                     l2219:	
  3280                           ;incstack = 0
  3281                           ; Regs used in _OSCILLATOR_Initialize: [wreg+status,2]
  3282                           
  3283                           
  3284                           ;mcc_generated_files/mcc.c: 66:     OSCCON = 0x70;
  3285     04A5  3070               	movlw	112
  3286     04A6  0021               	movlb	1	; select bank1
  3287     04A7  0099               	movwf	25	;volatile
  3288     04A8                     l2221:
  3289                           
  3290                           ;mcc_generated_files/mcc.c: 68:     OSCTUNE = 0x00;
  3291     04A8  0198               	clrf	24	;volatile
  3292     04A9                     l2223:
  3293                           
  3294                           ;mcc_generated_files/mcc.c: 70:     BORCON = 0x00;
  3295     04A9  0022               	movlb	2	; select bank2
  3296     04AA  0196               	clrf	22	;volatile
  3297     04AB                     l32:	
  3298                           ;mcc_generated_files/mcc.c: 73:     {;mcc_generated_files/mcc.c: 74:     }
  3299                           
  3300                           
  3301                           ;mcc_generated_files/mcc.c: 72:     while(PLLR == 0)
  3302     04AB  0021               	movlb	1	; select bank1
  3303     04AC  1F1A               	btfss	26,6	;volatile
  3304     04AD  2CAF               	goto	u2191
  3305     04AE  2CB0               	goto	u2190
  3306     04AF                     u2191:
  3307     04AF  2CAB               	goto	l32
  3308     04B0                     u2190:
  3309     04B0                     l35:
  3310     04B0  0008               	return
  3311     04B1                     __end_of_OSCILLATOR_Initialize:
  3312                           
  3313                           	psect	text11
  3314     048B                     __ptext11:	
  3315 ;; *************** function _EPWM1_Initialize *****************
  3316 ;; Defined at:
  3317 ;;		line 64 in file "mcc_generated_files/epwm1.c"
  3318 ;; Parameters:    Size  Location     Type
  3319 ;;		None
  3320 ;; Auto vars:     Size  Location     Type
  3321 ;;		None
  3322 ;; Return value:  Size  Location     Type
  3323 ;;                  1    wreg      void 
  3324 ;; Registers used:
  3325 ;;		wreg, status,2, status,0
  3326 ;; Tracked objects:
  3327 ;;		On entry : 0/0
  3328 ;;		On exit  : 0/0
  3329 ;;		Unchanged: 0/0
  3330 ;; Data sizes:     COMMON   BANK0   BANK1   BANK2   BANK3   BANK4   BANK5   BANK6
  3331 ;;      Params:         0       0       0       0       0       0       0       0
  3332 ;;      Locals:         0       0       0       0       0       0       0       0
  3333 ;;      Temps:          0       0       0       0       0       0       0       0
  3334 ;;      Totals:         0       0       0       0       0       0       0       0
  3335 ;;Total ram usage:        0 bytes
  3336 ;; Hardware stack levels used: 1
  3337 ;; Hardware stack levels required when called: 4
  3338 ;; This function calls:
  3339 ;;		Nothing
  3340 ;; This function is called by:
  3341 ;;		_SYSTEM_Initialize
  3342 ;; This function uses a non-reentrant model
  3343 ;;
  3344                           
  3345     048B                     _EPWM1_Initialize:	
  3346                           ;psect for function _EPWM1_Initialize
  3347                           
  3348     048B                     l2227:	
  3349                           ;incstack = 0
  3350                           ; Regs used in _EPWM1_Initialize: [wreg+status,2+status,0]
  3351                           
  3352                           
  3353                           ;mcc_generated_files/epwm1.c: 69:  CCP1CON = 0x0C;
  3354     048B  300C               	movlw	12
  3355     048C  0025               	movlb	5	; select bank5
  3356     048D  0093               	movwf	19	;volatile
  3357     048E                     l2229:
  3358                           
  3359                           ;mcc_generated_files/epwm1.c: 72:  ECCP1AS = 0x00;
  3360     048E  0195               	clrf	21	;volatile
  3361     048F                     l2231:
  3362                           
  3363                           ;mcc_generated_files/epwm1.c: 75:  PWM1CON = 0x80;
  3364     048F  3080               	movlw	128
  3365     0490  0094               	movwf	20	;volatile
  3366     0491                     l2233:
  3367                           
  3368                           ;mcc_generated_files/epwm1.c: 78:  PSTR1CON = 0x01;
  3369     0491  3001               	movlw	1
  3370     0492  0096               	movwf	22	;volatile
  3371     0493                     l2235:
  3372                           
  3373                           ;mcc_generated_files/epwm1.c: 81:  CCPR1H = 0x00;
  3374     0493  0192               	clrf	18	;volatile
  3375     0494                     l2237:
  3376                           
  3377                           ;mcc_generated_files/epwm1.c: 84:  CCPR1L = 0x00;
  3378     0494  0191               	clrf	17	;volatile
  3379     0495                     l2239:
  3380                           
  3381                           ;mcc_generated_files/epwm1.c: 87:  CCPTMRS0bits.C1TSEL = 0x0;
  3382     0495  30FC               	movlw	-4
  3383     0496  059E               	andwf	30,f	;volatile
  3384     0497                     l249:
  3385     0497  0008               	return
  3386     0498                     __end_of_EPWM1_Initialize:
  3387                           
  3388                           	psect	text12
  3389     04B1                     __ptext12:	
  3390 ;; *************** function _ECCP3_Initialize *****************
  3391 ;; Defined at:
  3392 ;;		line 59 in file "mcc_generated_files/eccp3.c"
  3393 ;; Parameters:    Size  Location     Type
  3394 ;;		None
  3395 ;; Auto vars:     Size  Location     Type
  3396 ;;		None
  3397 ;; Return value:  Size  Location     Type
  3398 ;;                  1    wreg      void 
  3399 ;; Registers used:
  3400 ;;		wreg, status,2
  3401 ;; Tracked objects:
  3402 ;;		On entry : 0/0
  3403 ;;		On exit  : 0/0
  3404 ;;		Unchanged: 0/0
  3405 ;; Data sizes:     COMMON   BANK0   BANK1   BANK2   BANK3   BANK4   BANK5   BANK6
  3406 ;;      Params:         0       0       0       0       0       0       0       0
  3407 ;;      Locals:         0       0       0       0       0       0       0       0
  3408 ;;      Temps:          0       0       0       0       0       0       0       0
  3409 ;;      Totals:         0       0       0       0       0       0       0       0
  3410 ;;Total ram usage:        0 bytes
  3411 ;; Hardware stack levels used: 1
  3412 ;; Hardware stack levels required when called: 4
  3413 ;; This function calls:
  3414 ;;		Nothing
  3415 ;; This function is called by:
  3416 ;;		_SYSTEM_Initialize
  3417 ;; This function uses a non-reentrant model
  3418 ;;
  3419                           
  3420     04B1                     _ECCP3_Initialize:	
  3421                           ;psect for function _ECCP3_Initialize
  3422                           
  3423     04B1                     l2241:	
  3424                           ;incstack = 0
  3425                           ; Regs used in _ECCP3_Initialize: [wreg+status,2]
  3426                           
  3427                           
  3428                           ;mcc_generated_files/eccp3.c: 64:  CCP3CON = 0x05;
  3429     04B1  3005               	movlw	5
  3430     04B2  0026               	movlb	6	; select bank6
  3431     04B3  0093               	movwf	19	;volatile
  3432     04B4                     l2243:
  3433                           
  3434                           ;mcc_generated_files/eccp3.c: 67:  CCPR3H = 0x00;
  3435     04B4  0192               	clrf	18	;volatile
  3436     04B5                     l2245:
  3437                           
  3438                           ;mcc_generated_files/eccp3.c: 70:  CCPR3L = 0x00;
  3439     04B5  0191               	clrf	17	;volatile
  3440     04B6                     l2247:
  3441                           
  3442                           ;mcc_generated_files/eccp3.c: 73:     PIR3bits.CCP3IF = 0;
  3443     04B6  0020               	movlb	0	; select bank0
  3444     04B7  1213               	bcf	19,4	;volatile
  3445     04B8                     l2249:
  3446                           
  3447                           ;mcc_generated_files/eccp3.c: 76:     PIE3bits.CCP3IE = 1;
  3448     04B8  0021               	movlb	1	; select bank1
  3449     04B9  1613               	bsf	19,4	;volatile
  3450     04BA                     l229:
  3451     04BA  0008               	return
  3452     04BB                     __end_of_ECCP3_Initialize:
  3453                           
  3454                           	psect	text13
  3455     0046                     __ptext13:	
  3456 ;; *************** function _LED_output *****************
  3457 ;; Defined at:
  3458 ;;		line 331 in file "main.c"
  3459 ;; Parameters:    Size  Location     Type
  3460 ;;		None
  3461 ;; Auto vars:     Size  Location     Type
  3462 ;;  i               1    2[BANK0 ] unsigned char 
  3463 ;;  crc8            1    1[BANK0 ] unsigned char 
  3464 ;; Return value:  Size  Location     Type
  3465 ;;                  1    wreg      void 
  3466 ;; Registers used:
  3467 ;;		wreg, fsr1l, fsr1h, status,2, status,0, pclath, cstack
  3468 ;; Tracked objects:
  3469 ;;		On entry : 0/0
  3470 ;;		On exit  : 0/0
  3471 ;;		Unchanged: 0/0
  3472 ;; Data sizes:     COMMON   BANK0   BANK1   BANK2   BANK3   BANK4   BANK5   BANK6
  3473 ;;      Params:         0       0       0       0       0       0       0       0
  3474 ;;      Locals:         0       2       0       0       0       0       0       0
  3475 ;;      Temps:          0       1       0       0       0       0       0       0
  3476 ;;      Totals:         0       3       0       0       0       0       0       0
  3477 ;;Total ram usage:        3 bytes
  3478 ;; Hardware stack levels used: 1
  3479 ;; Hardware stack levels required when called: 5
  3480 ;; This function calls:
  3481 ;;		_DRL_ON
  3482 ;;		_LoBeam_ON
  3483 ;;		_POS_ON
  3484 ;; This function is called by:
  3485 ;;		_main
  3486 ;; This function uses a non-reentrant model
  3487 ;;
  3488                           
  3489     0046                     _LED_output:	
  3490                           ;psect for function _LED_output
  3491                           
  3492     0046                     l2305:	
  3493                           ;incstack = 0
  3494                           ; Regs used in _LED_output: [wreg+fsr1l+fsr1h+status,2+status,0+pclath+cstack]
  3495                           
  3496                           
  3497                           ;main.c: 332:   uint8_t crc8 = CS[csFlag.Byte];
  3498     0046  0020               	movlb	0	; select bank0
  3499     0047  0840               	movf	_csFlag,w
  3500     0048  3EA0               	addlw	(low (_CS| 0))& (0+255)
  3501     0049  0086               	movwf	6
  3502     004A  0187               	clrf	7
  3503     004B  0801               	movf	1,w
  3504     004C  00C6               	movwf	LED_output@crc8
  3505     004D                     l2307:
  3506                           
  3507                           ;main.c: 334:   if (data_buf[10] != crc8)
  3508     004D  082A               	movf	_data_buf+10,w
  3509     004E  0646               	xorwf	LED_output@crc8,w
  3510     004F  1903               	skipnz
  3511     0050  2852               	goto	u2251
  3512     0051  2853               	goto	u2250
  3513     0052                     u2251:
  3514     0052  2854               	goto	l2311
  3515     0053                     u2250:
  3516     0053  29D0               	goto	l342
  3517     0054                     l2311:
  3518                           
  3519                           ;main.c: 336:   if (data_buf[0] != 0xC8)
  3520     0054  30C8               	movlw	200
  3521     0055  0620               	xorwf	_data_buf,w
  3522     0056  1903               	btfsc	3,2
  3523     0057  2859               	goto	u2261
  3524     0058  285A               	goto	u2260
  3525     0059                     u2261:
  3526     0059  285B               	goto	l2315
  3527     005A                     u2260:
  3528     005A  29D0               	goto	l342
  3529     005B                     l2315:
  3530                           
  3531                           ;main.c: 338:   if (data_buf[1] != 0x8B)
  3532     005B  308B               	movlw	139
  3533     005C  0621               	xorwf	_data_buf+1,w
  3534     005D  1903               	btfsc	3,2
  3535     005E  2860               	goto	u2271
  3536     005F  2861               	goto	u2270
  3537     0060                     u2271:
  3538     0060  2862               	goto	l2319
  3539     0061                     u2270:
  3540     0061  29D0               	goto	l342
  3541     0062                     l2319:
  3542                           
  3543                           ;main.c: 341:   T10MS_CNT = 0;
  3544     0062  01BF               	clrf	_T10MS_CNT	;volatile
  3545     0063                     l2321:
  3546                           
  3547                           ;main.c: 344:   if (csFlag.POS == 1) {
  3548     0063  1EC0               	btfss	_csFlag,5
  3549     0064  2866               	goto	u2281
  3550     0065  2867               	goto	u2280
  3551     0066                     u2281:
  3552     0066  286A               	goto	l349
  3553     0067                     u2280:
  3554     0067                     l346:	
  3555                           ;main.c: 345:     do { LATAbits.LATA1 = 1; } while(0);
  3556                           
  3557     0067  0022               	movlb	2	; select bank2
  3558     0068  148C               	bsf	12,1	;volatile
  3559     0069  286C               	goto	l348
  3560     006A                     l349:	
  3561                           ;main.c: 347:     do { LATAbits.LATA1 = 0; } while(0);
  3562                           
  3563     006A  0022               	movlb	2	; select bank2
  3564     006B  108C               	bcf	12,1	;volatile
  3565     006C                     l348:	
  3566                           ;main.c: 348:   }
  3567                           
  3568                           
  3569                           ;main.c: 351:   if (csFlag.HiBeam == 0 && csFlag.LoBeam == 0 && csFlag.DRL == 0 &&
  3570     006C  0020               	movlb	0	; select bank0
  3571     006D  1940               	btfsc	_csFlag,2
  3572     006E  2870               	goto	u2291
  3573     006F  2871               	goto	u2290
  3574     0070                     u2291:
  3575     0070  2883               	goto	l351
  3576     0071                     u2290:
  3577     0071                     l2323:
  3578     0071  19C0               	btfsc	_csFlag,3
  3579     0072  2874               	goto	u2301
  3580     0073  2875               	goto	u2300
  3581     0074                     u2301:
  3582     0074  2883               	goto	l351
  3583     0075                     u2300:
  3584     0075                     l2325:
  3585     0075  1A40               	btfsc	_csFlag,4
  3586     0076  2878               	goto	u2311
  3587     0077  2879               	goto	u2310
  3588     0078                     u2311:
  3589     0078  2883               	goto	l351
  3590     0079                     u2310:
  3591     0079                     l2327:
  3592     0079  1AC0               	btfsc	_csFlag,5
  3593     007A  287C               	goto	u2321
  3594     007B  287D               	goto	u2320
  3595     007C                     u2321:
  3596     007C  2883               	goto	l351
  3597     007D                     u2320:
  3598     007D                     l352:	
  3599                           ;main.c: 352:       csFlag.POS == 0) {;main.c: 353:     do { LATBbits.LATB0 = 0; } while
      +                          (0);
  3600                           
  3601     007D  0022               	movlb	2	; select bank2
  3602     007E  100D               	bcf	13,0	;volatile
  3603     007F                     l354:	
  3604                           ;main.c: 354:     do { LATAbits.LATA0 = 0; } while(0);
  3605                           
  3606     007F  100C               	bcf	12,0	;volatile
  3607     0080                     l2329:
  3608                           
  3609                           ;main.c: 355:     CCPR1L = 0;
  3610     0080  0025               	movlb	5	; select bank5
  3611     0081  0191               	clrf	17	;volatile
  3612                           
  3613                           ;main.c: 356:   }
  3614     0082  29BF               	goto	l2475
  3615     0083                     l351:	
  3616                           ;main.c: 357:   else if (csFlag.HiBeam == 0 && csFlag.LoBeam == 0 && csFlag.DRL == 0 &&
  3617                           
  3618     0083  1940               	btfsc	_csFlag,2
  3619     0084  2886               	goto	u2331
  3620     0085  2887               	goto	u2330
  3621     0086                     u2331:
  3622     0086  289A               	goto	l357
  3623     0087                     u2330:
  3624     0087                     l2331:
  3625     0087  19C0               	btfsc	_csFlag,3
  3626     0088  288A               	goto	u2341
  3627     0089  288B               	goto	u2340
  3628     008A                     u2341:
  3629     008A  289A               	goto	l357
  3630     008B                     u2340:
  3631     008B                     l2333:
  3632     008B  1A40               	btfsc	_csFlag,4
  3633     008C  288E               	goto	u2351
  3634     008D  288F               	goto	u2350
  3635     008E                     u2351:
  3636     008E  289A               	goto	l357
  3637     008F                     u2350:
  3638     008F                     l2335:
  3639     008F  1EC0               	btfss	_csFlag,5
  3640     0090  2892               	goto	u2361
  3641     0091  2893               	goto	u2360
  3642     0092                     u2361:
  3643     0092  289A               	goto	l357
  3644     0093                     u2360:
  3645     0093                     l358:	
  3646                           ;main.c: 358:            csFlag.POS == 1) {;main.c: 359:     do { LATBbits.LATB0 = 0; } 
      +                          while(0);
  3647                           
  3648     0093  0022               	movlb	2	; select bank2
  3649     0094  100D               	bcf	13,0	;volatile
  3650     0095                     l360:	
  3651                           ;main.c: 360:     do { LATAbits.LATA0 = 0; } while(0);
  3652                           
  3653     0095  100C               	bcf	12,0	;volatile
  3654     0096                     l2337:
  3655                           
  3656                           ;main.c: 361:     POS_ON();
  3657     0096  3184  24DB  3180   	fcall	_POS_ON
  3658                           
  3659                           ;main.c: 362:   }
  3660     0099  29BF               	goto	l2475
  3661     009A                     l357:	
  3662                           ;main.c: 363:   else if (csFlag.HiBeam == 0 && csFlag.LoBeam == 0 && csFlag.DRL == 1 &&
  3663                           
  3664     009A  1940               	btfsc	_csFlag,2
  3665     009B  289D               	goto	u2371
  3666     009C  289E               	goto	u2370
  3667     009D                     u2371:
  3668     009D  28B1               	goto	l363
  3669     009E                     u2370:
  3670     009E                     l2339:
  3671     009E  19C0               	btfsc	_csFlag,3
  3672     009F  28A1               	goto	u2381
  3673     00A0  28A2               	goto	u2380
  3674     00A1                     u2381:
  3675     00A1  28B1               	goto	l363
  3676     00A2                     u2380:
  3677     00A2                     l2341:
  3678     00A2  1E40               	btfss	_csFlag,4
  3679     00A3  28A5               	goto	u2391
  3680     00A4  28A6               	goto	u2390
  3681     00A5                     u2391:
  3682     00A5  28B1               	goto	l363
  3683     00A6                     u2390:
  3684     00A6                     l2343:
  3685     00A6  1AC0               	btfsc	_csFlag,5
  3686     00A7  28A9               	goto	u2401
  3687     00A8  28AA               	goto	u2400
  3688     00A9                     u2401:
  3689     00A9  28B1               	goto	l363
  3690     00AA                     u2400:
  3691     00AA                     l364:	
  3692                           ;main.c: 364:            csFlag.POS == 0) {;main.c: 365:     do { LATBbits.LATB0 = 0; } 
      +                          while(0);
  3693                           
  3694     00AA  0022               	movlb	2	; select bank2
  3695     00AB  100D               	bcf	13,0	;volatile
  3696     00AC                     l366:	
  3697                           ;main.c: 366:     do { LATAbits.LATA0 = 0; } while(0);
  3698                           
  3699     00AC  100C               	bcf	12,0	;volatile
  3700     00AD                     l2345:
  3701                           
  3702                           ;main.c: 367:     DRL_ON();
  3703     00AD  3183  23C0  3180   	fcall	_DRL_ON
  3704                           
  3705                           ;main.c: 368:   }
  3706     00B0  29BF               	goto	l2475
  3707     00B1                     l363:	
  3708                           ;main.c: 369:   else if (csFlag.HiBeam == 0 && csFlag.LoBeam == 0 && csFlag.DRL == 1 &&
  3709                           
  3710     00B1  1940               	btfsc	_csFlag,2
  3711     00B2  28B4               	goto	u2411
  3712     00B3  28B5               	goto	u2410
  3713     00B4                     u2411:
  3714     00B4  28C5               	goto	l369
  3715     00B5                     u2410:
  3716     00B5                     l2347:
  3717     00B5  19C0               	btfsc	_csFlag,3
  3718     00B6  28B8               	goto	u2421
  3719     00B7  28B9               	goto	u2420
  3720     00B8                     u2421:
  3721     00B8  28C5               	goto	l369
  3722     00B9                     u2420:
  3723     00B9                     l2349:
  3724     00B9  1E40               	btfss	_csFlag,4
  3725     00BA  28BC               	goto	u2431
  3726     00BB  28BD               	goto	u2430
  3727     00BC                     u2431:
  3728     00BC  28C5               	goto	l369
  3729     00BD                     u2430:
  3730     00BD                     l2351:
  3731     00BD  1EC0               	btfss	_csFlag,5
  3732     00BE  28C0               	goto	u2441
  3733     00BF  28C1               	goto	u2440
  3734     00C0                     u2441:
  3735     00C0  28C5               	goto	l369
  3736     00C1                     u2440:
  3737     00C1                     l370:	
  3738                           ;main.c: 370:            csFlag.POS == 1) {;main.c: 371:     do { LATBbits.LATB0 = 0; } 
      +                          while(0);
  3739                           
  3740     00C1  0022               	movlb	2	; select bank2
  3741     00C2  100D               	bcf	13,0	;volatile
  3742     00C3                     l372:	
  3743                           ;main.c: 372:     do { LATAbits.LATA0 = 0; } while(0);
  3744                           
  3745     00C3  100C               	bcf	12,0	;volatile
  3746     00C4  28AD               	goto	l2345
  3747     00C5                     l369:	
  3748                           ;main.c: 375:   else if (csFlag.HiBeam == 0 && csFlag.LoBeam == 1 && csFlag.DRL == 0 &&
  3749                           
  3750     00C5  1940               	btfsc	_csFlag,2
  3751     00C6  28C8               	goto	u2451
  3752     00C7  28C9               	goto	u2450
  3753     00C8                     u2451:
  3754     00C8  28DB               	goto	l375
  3755     00C9                     u2450:
  3756     00C9                     l2355:
  3757     00C9  1DC0               	btfss	_csFlag,3
  3758     00CA  28CC               	goto	u2461
  3759     00CB  28CD               	goto	u2460
  3760     00CC                     u2461:
  3761     00CC  28DB               	goto	l375
  3762     00CD                     u2460:
  3763     00CD                     l2357:
  3764     00CD  1A40               	btfsc	_csFlag,4
  3765     00CE  28D0               	goto	u2471
  3766     00CF  28D1               	goto	u2470
  3767     00D0                     u2471:
  3768     00D0  28DB               	goto	l375
  3769     00D1                     u2470:
  3770     00D1                     l2359:
  3771     00D1  1AC0               	btfsc	_csFlag,5
  3772     00D2  28D4               	goto	u2481
  3773     00D3  28D5               	goto	u2480
  3774     00D4                     u2481:
  3775     00D4  28DB               	goto	l375
  3776     00D5                     u2480:
  3777     00D5                     l2361:
  3778                           
  3779                           ;main.c: 376:            csFlag.POS == 0) {;main.c: 377:     LoBeam_ON();
  3780     00D5  3184  24D5  3180   	fcall	_LoBeam_ON
  3781     00D8                     l2363:
  3782     00D8  0022               	movlb	2	; select bank2
  3783     00D9  100C               	bcf	12,0	;volatile
  3784     00DA  2880               	goto	l2329
  3785     00DB                     l375:	
  3786                           ;main.c: 381:   else if (csFlag.HiBeam == 0 && csFlag.LoBeam == 1 && csFlag.DRL == 0 &&
  3787                           
  3788     00DB  1940               	btfsc	_csFlag,2
  3789     00DC  28DE               	goto	u2491
  3790     00DD  28DF               	goto	u2490
  3791     00DE                     u2491:
  3792     00DE  28F1               	goto	l379
  3793     00DF                     u2490:
  3794     00DF                     l2367:
  3795     00DF  1DC0               	btfss	_csFlag,3
  3796     00E0  28E2               	goto	u2501
  3797     00E1  28E3               	goto	u2500
  3798     00E2                     u2501:
  3799     00E2  28F1               	goto	l379
  3800     00E3                     u2500:
  3801     00E3                     l2369:
  3802     00E3  1A40               	btfsc	_csFlag,4
  3803     00E4  28E6               	goto	u2511
  3804     00E5  28E7               	goto	u2510
  3805     00E6                     u2511:
  3806     00E6  28F1               	goto	l379
  3807     00E7                     u2510:
  3808     00E7                     l2371:
  3809     00E7  1EC0               	btfss	_csFlag,5
  3810     00E8  28EA               	goto	u2521
  3811     00E9  28EB               	goto	u2520
  3812     00EA                     u2521:
  3813     00EA  28F1               	goto	l379
  3814     00EB                     u2520:
  3815     00EB                     l2373:
  3816                           
  3817                           ;main.c: 382:            csFlag.POS == 1) {;main.c: 383:     LoBeam_ON();
  3818     00EB  3184  24D5  3180   	fcall	_LoBeam_ON
  3819     00EE                     l2375:
  3820     00EE  0022               	movlb	2	; select bank2
  3821     00EF  100C               	bcf	12,0	;volatile
  3822     00F0  2896               	goto	l2337
  3823     00F1                     l379:	
  3824                           ;main.c: 387:   else if (csFlag.HiBeam == 0 && csFlag.LoBeam == 1 && csFlag.DRL == 1 &&
  3825                           
  3826     00F1  1940               	btfsc	_csFlag,2
  3827     00F2  28F4               	goto	u2531
  3828     00F3  28F5               	goto	u2530
  3829     00F4                     u2531:
  3830     00F4  2907               	goto	l383
  3831     00F5                     u2530:
  3832     00F5                     l2379:
  3833     00F5  1DC0               	btfss	_csFlag,3
  3834     00F6  28F8               	goto	u2541
  3835     00F7  28F9               	goto	u2540
  3836     00F8                     u2541:
  3837     00F8  2907               	goto	l383
  3838     00F9                     u2540:
  3839     00F9                     l2381:
  3840     00F9  1E40               	btfss	_csFlag,4
  3841     00FA  28FC               	goto	u2551
  3842     00FB  28FD               	goto	u2550
  3843     00FC                     u2551:
  3844     00FC  2907               	goto	l383
  3845     00FD                     u2550:
  3846     00FD                     l2383:
  3847     00FD  1AC0               	btfsc	_csFlag,5
  3848     00FE  2900               	goto	u2561
  3849     00FF  2901               	goto	u2560
  3850     0100                     u2561:
  3851     0100  2907               	goto	l383
  3852     0101                     u2560:
  3853     0101                     l2385:
  3854                           
  3855                           ;main.c: 388:            csFlag.POS == 0) {;main.c: 389:     LoBeam_ON();
  3856     0101  3184  24D5  3180   	fcall	_LoBeam_ON
  3857     0104                     l2387:
  3858     0104  0022               	movlb	2	; select bank2
  3859     0105  100C               	bcf	12,0	;volatile
  3860     0106  2880               	goto	l2329
  3861     0107                     l383:	
  3862                           ;main.c: 393:   else if (csFlag.HiBeam == 0 && csFlag.LoBeam == 1 && csFlag.DRL == 1 &&
  3863                           
  3864     0107  1940               	btfsc	_csFlag,2
  3865     0108  290A               	goto	u2571
  3866     0109  290B               	goto	u2570
  3867     010A                     u2571:
  3868     010A  291D               	goto	l387
  3869     010B                     u2570:
  3870     010B                     l2391:
  3871     010B  1DC0               	btfss	_csFlag,3
  3872     010C  290E               	goto	u2581
  3873     010D  290F               	goto	u2580
  3874     010E                     u2581:
  3875     010E  291D               	goto	l387
  3876     010F                     u2580:
  3877     010F                     l2393:
  3878     010F  1E40               	btfss	_csFlag,4
  3879     0110  2912               	goto	u2591
  3880     0111  2913               	goto	u2590
  3881     0112                     u2591:
  3882     0112  291D               	goto	l387
  3883     0113                     u2590:
  3884     0113                     l2395:
  3885     0113  1EC0               	btfss	_csFlag,5
  3886     0114  2916               	goto	u2601
  3887     0115  2917               	goto	u2600
  3888     0116                     u2601:
  3889     0116  291D               	goto	l387
  3890     0117                     u2600:
  3891     0117                     l2397:
  3892                           
  3893                           ;main.c: 394:            csFlag.POS == 1) {;main.c: 395:     LoBeam_ON();
  3894     0117  3184  24D5  3180   	fcall	_LoBeam_ON
  3895     011A                     l2399:
  3896     011A  0022               	movlb	2	; select bank2
  3897     011B  100C               	bcf	12,0	;volatile
  3898     011C  2896               	goto	l2337
  3899     011D                     l387:	
  3900                           ;main.c: 399:   else if (csFlag.HiBeam == 1 && csFlag.LoBeam == 0 && csFlag.DRL == 0 &&
  3901                           
  3902     011D  1D40               	btfss	_csFlag,2
  3903     011E  2920               	goto	u2611
  3904     011F  2921               	goto	u2610
  3905     0120                     u2611:
  3906     0120  2931               	goto	l391
  3907     0121                     u2610:
  3908     0121                     l2403:
  3909     0121  19C0               	btfsc	_csFlag,3
  3910     0122  2924               	goto	u2621
  3911     0123  2925               	goto	u2620
  3912     0124                     u2621:
  3913     0124  2931               	goto	l391
  3914     0125                     u2620:
  3915     0125                     l2405:
  3916     0125  1A40               	btfsc	_csFlag,4
  3917     0126  2928               	goto	u2631
  3918     0127  2929               	goto	u2630
  3919     0128                     u2631:
  3920     0128  2931               	goto	l391
  3921     0129                     u2630:
  3922     0129                     l2407:
  3923     0129  1AC0               	btfsc	_csFlag,5
  3924     012A  292C               	goto	u2641
  3925     012B  292D               	goto	u2640
  3926     012C                     u2641:
  3927     012C  2931               	goto	l391
  3928     012D                     u2640:
  3929     012D                     l392:	
  3930                           ;main.c: 400:            csFlag.POS == 0) {;main.c: 401:     do { LATAbits.LATA0 = 1; } 
      +                          while(0);
  3931                           
  3932     012D  0022               	movlb	2	; select bank2
  3933     012E  140C               	bsf	12,0	;volatile
  3934     012F                     l394:	
  3935                           ;main.c: 402:     do { LATBbits.LATB0 = 0; } while(0);
  3936                           
  3937     012F  100D               	bcf	13,0	;volatile
  3938     0130  2880               	goto	l2329
  3939     0131                     l391:	
  3940                           ;main.c: 405:   else if (csFlag.HiBeam == 1 && csFlag.LoBeam == 0 && csFlag.DRL == 0 &&
  3941                           
  3942     0131  1D40               	btfss	_csFlag,2
  3943     0132  2934               	goto	u2651
  3944     0133  2935               	goto	u2650
  3945     0134                     u2651:
  3946     0134  2945               	goto	l397
  3947     0135                     u2650:
  3948     0135                     l2411:
  3949     0135  19C0               	btfsc	_csFlag,3
  3950     0136  2938               	goto	u2661
  3951     0137  2939               	goto	u2660
  3952     0138                     u2661:
  3953     0138  2945               	goto	l397
  3954     0139                     u2660:
  3955     0139                     l2413:
  3956     0139  1A40               	btfsc	_csFlag,4
  3957     013A  293C               	goto	u2671
  3958     013B  293D               	goto	u2670
  3959     013C                     u2671:
  3960     013C  2945               	goto	l397
  3961     013D                     u2670:
  3962     013D                     l2415:
  3963     013D  1EC0               	btfss	_csFlag,5
  3964     013E  2940               	goto	u2681
  3965     013F  2941               	goto	u2680
  3966     0140                     u2681:
  3967     0140  2945               	goto	l397
  3968     0141                     u2680:
  3969     0141                     l398:	
  3970                           ;main.c: 406:            csFlag.POS == 1) {;main.c: 407:     do { LATAbits.LATA0 = 0; } 
      +                          while(0);
  3971                           
  3972     0141  0022               	movlb	2	; select bank2
  3973     0142  100C               	bcf	12,0	;volatile
  3974     0143                     l400:	
  3975                           ;main.c: 408:     do { LATBbits.LATB0 = 0; } while(0);
  3976                           
  3977     0143  100D               	bcf	13,0	;volatile
  3978     0144  2896               	goto	l2337
  3979     0145                     l397:	
  3980                           ;main.c: 411:   else if (csFlag.HiBeam == 1 && csFlag.LoBeam == 0 && csFlag.DRL == 1 &&
  3981                           
  3982     0145  1D40               	btfss	_csFlag,2
  3983     0146  2948               	goto	u2691
  3984     0147  2949               	goto	u2690
  3985     0148                     u2691:
  3986     0148  2959               	goto	l403
  3987     0149                     u2690:
  3988     0149                     l2419:
  3989     0149  19C0               	btfsc	_csFlag,3
  3990     014A  294C               	goto	u2701
  3991     014B  294D               	goto	u2700
  3992     014C                     u2701:
  3993     014C  2959               	goto	l403
  3994     014D                     u2700:
  3995     014D                     l2421:
  3996     014D  1E40               	btfss	_csFlag,4
  3997     014E  2950               	goto	u2711
  3998     014F  2951               	goto	u2710
  3999     0150                     u2711:
  4000     0150  2959               	goto	l403
  4001     0151                     u2710:
  4002     0151                     l2423:
  4003     0151  1AC0               	btfsc	_csFlag,5
  4004     0152  2954               	goto	u2721
  4005     0153  2955               	goto	u2720
  4006     0154                     u2721:
  4007     0154  2959               	goto	l403
  4008     0155                     u2720:
  4009     0155                     l404:	
  4010                           ;main.c: 412:            csFlag.POS == 0) {;main.c: 413:     do { LATAbits.LATA0 = 0; } 
      +                          while(0);
  4011                           
  4012     0155  0022               	movlb	2	; select bank2
  4013     0156  100C               	bcf	12,0	;volatile
  4014     0157                     l406:	
  4015                           ;main.c: 414:     do { LATBbits.LATB0 = 0; } while(0);
  4016                           
  4017     0157  100D               	bcf	13,0	;volatile
  4018     0158  28AD               	goto	l2345
  4019     0159                     l403:	
  4020                           ;main.c: 417:   else if (csFlag.HiBeam == 1 && csFlag.LoBeam == 0 && csFlag.DRL == 1 &&
  4021                           
  4022     0159  1D40               	btfss	_csFlag,2
  4023     015A  295C               	goto	u2731
  4024     015B  295D               	goto	u2730
  4025     015C                     u2731:
  4026     015C  296D               	goto	l409
  4027     015D                     u2730:
  4028     015D                     l2427:
  4029     015D  19C0               	btfsc	_csFlag,3
  4030     015E  2960               	goto	u2741
  4031     015F  2961               	goto	u2740
  4032     0160                     u2741:
  4033     0160  296D               	goto	l409
  4034     0161                     u2740:
  4035     0161                     l2429:
  4036     0161  1E40               	btfss	_csFlag,4
  4037     0162  2964               	goto	u2751
  4038     0163  2965               	goto	u2750
  4039     0164                     u2751:
  4040     0164  296D               	goto	l409
  4041     0165                     u2750:
  4042     0165                     l2431:
  4043     0165  1EC0               	btfss	_csFlag,5
  4044     0166  2968               	goto	u2761
  4045     0167  2969               	goto	u2760
  4046     0168                     u2761:
  4047     0168  296D               	goto	l409
  4048     0169                     u2760:
  4049     0169                     l410:	
  4050                           ;main.c: 418:            csFlag.POS == 1) {;main.c: 419:     do { LATAbits.LATA0 = 0; } 
      +                          while(0);
  4051                           
  4052     0169  0022               	movlb	2	; select bank2
  4053     016A  100C               	bcf	12,0	;volatile
  4054     016B                     l412:	
  4055                           ;main.c: 420:     do { LATBbits.LATB0 = 0; } while(0);
  4056                           
  4057     016B  100D               	bcf	13,0	;volatile
  4058     016C  28AD               	goto	l2345
  4059     016D                     l409:	
  4060                           ;main.c: 423:   else if (csFlag.HiBeam == 1 && csFlag.LoBeam == 1 && csFlag.DRL == 0 &&
  4061                           
  4062     016D  1D40               	btfss	_csFlag,2
  4063     016E  2970               	goto	u2771
  4064     016F  2971               	goto	u2770
  4065     0170                     u2771:
  4066     0170  2983               	goto	l415
  4067     0171                     u2770:
  4068     0171                     l2435:
  4069     0171  1DC0               	btfss	_csFlag,3
  4070     0172  2974               	goto	u2781
  4071     0173  2975               	goto	u2780
  4072     0174                     u2781:
  4073     0174  2983               	goto	l415
  4074     0175                     u2780:
  4075     0175                     l2437:
  4076     0175  1A40               	btfsc	_csFlag,4
  4077     0176  2978               	goto	u2791
  4078     0177  2979               	goto	u2790
  4079     0178                     u2791:
  4080     0178  2983               	goto	l415
  4081     0179                     u2790:
  4082     0179                     l2439:
  4083     0179  1AC0               	btfsc	_csFlag,5
  4084     017A  297C               	goto	u2801
  4085     017B  297D               	goto	u2800
  4086     017C                     u2801:
  4087     017C  2983               	goto	l415
  4088     017D                     u2800:
  4089     017D                     l416:	
  4090                           ;main.c: 424:            csFlag.POS == 0) {;main.c: 425:     do { LATAbits.LATA0 = 1; } 
      +                          while(0);
  4091                           
  4092     017D  0022               	movlb	2	; select bank2
  4093     017E  140C               	bsf	12,0	;volatile
  4094     017F                     l2441:
  4095                           
  4096                           ;main.c: 426:     LoBeam_ON();
  4097     017F  3184  24D5  3180   	fcall	_LoBeam_ON
  4098     0182  2880               	goto	l2329
  4099     0183                     l415:	
  4100                           ;main.c: 429:   else if (csFlag.HiBeam == 1 && csFlag.LoBeam == 1 && csFlag.DRL == 1 &&
  4101                           
  4102     0183  1D40               	btfss	_csFlag,2
  4103     0184  2986               	goto	u2811
  4104     0185  2987               	goto	u2810
  4105     0186                     u2811:
  4106     0186  2996               	goto	l419
  4107     0187                     u2810:
  4108     0187                     l2445:
  4109     0187  1DC0               	btfss	_csFlag,3
  4110     0188  298A               	goto	u2821
  4111     0189  298B               	goto	u2820
  4112     018A                     u2821:
  4113     018A  2996               	goto	l419
  4114     018B                     u2820:
  4115     018B                     l2447:
  4116     018B  1E40               	btfss	_csFlag,4
  4117     018C  298E               	goto	u2831
  4118     018D  298F               	goto	u2830
  4119     018E                     u2831:
  4120     018E  2996               	goto	l419
  4121     018F                     u2830:
  4122     018F                     l2449:
  4123     018F  1AC0               	btfsc	_csFlag,5
  4124     0190  2992               	goto	u2841
  4125     0191  2993               	goto	u2840
  4126     0192                     u2841:
  4127     0192  2996               	goto	l419
  4128     0193                     u2840:
  4129     0193                     l420:	
  4130                           ;main.c: 430:            csFlag.POS == 0) {;main.c: 431:     do { LATAbits.LATA0 = 1; } 
      +                          while(0);
  4131                           
  4132     0193  0022               	movlb	2	; select bank2
  4133     0194  140C               	bsf	12,0	;volatile
  4134     0195  297F               	goto	l2441
  4135     0196                     l419:	
  4136                           ;main.c: 435:   else if (csFlag.HiBeam == 1 && csFlag.LoBeam == 1 && csFlag.DRL == 0 &&
  4137                           
  4138     0196  1D40               	btfss	_csFlag,2
  4139     0197  2999               	goto	u2851
  4140     0198  299A               	goto	u2850
  4141     0199                     u2851:
  4142     0199  29AC               	goto	l423
  4143     019A                     u2850:
  4144     019A                     l2455:
  4145     019A  1DC0               	btfss	_csFlag,3
  4146     019B  299D               	goto	u2861
  4147     019C  299E               	goto	u2860
  4148     019D                     u2861:
  4149     019D  29AC               	goto	l423
  4150     019E                     u2860:
  4151     019E                     l2457:
  4152     019E  1A40               	btfsc	_csFlag,4
  4153     019F  29A1               	goto	u2871
  4154     01A0  29A2               	goto	u2870
  4155     01A1                     u2871:
  4156     01A1  29AC               	goto	l423
  4157     01A2                     u2870:
  4158     01A2                     l2459:
  4159     01A2  1EC0               	btfss	_csFlag,5
  4160     01A3  29A5               	goto	u2881
  4161     01A4  29A6               	goto	u2880
  4162     01A5                     u2881:
  4163     01A5  29AC               	goto	l423
  4164     01A6                     u2880:
  4165     01A6                     l424:	
  4166                           ;main.c: 436:            csFlag.POS == 1) {;main.c: 437:     do { LATAbits.LATA0 = 1; } 
      +                          while(0);
  4167                           
  4168     01A6  0022               	movlb	2	; select bank2
  4169     01A7  140C               	bsf	12,0	;volatile
  4170     01A8                     l2461:
  4171                           
  4172                           ;main.c: 438:     LoBeam_ON();
  4173     01A8  3184  24D5  3180   	fcall	_LoBeam_ON
  4174     01AB  2896               	goto	l2337
  4175     01AC                     l423:	
  4176                           ;main.c: 441:   else if (csFlag.HiBeam == 1 && csFlag.LoBeam == 1 && csFlag.DRL == 1 &&
  4177                           
  4178     01AC  1D40               	btfss	_csFlag,2
  4179     01AD  29AF               	goto	u2891
  4180     01AE  29B0               	goto	u2890
  4181     01AF                     u2891:
  4182     01AF  29BF               	goto	l418
  4183     01B0                     u2890:
  4184     01B0                     l2465:
  4185     01B0  1DC0               	btfss	_csFlag,3
  4186     01B1  29B3               	goto	u2901
  4187     01B2  29B4               	goto	u2900
  4188     01B3                     u2901:
  4189     01B3  29BF               	goto	l418
  4190     01B4                     u2900:
  4191     01B4                     l2467:
  4192     01B4  1E40               	btfss	_csFlag,4
  4193     01B5  29B7               	goto	u2911
  4194     01B6  29B8               	goto	u2910
  4195     01B7                     u2911:
  4196     01B7  29BF               	goto	l418
  4197     01B8                     u2910:
  4198     01B8                     l2469:
  4199     01B8  1EC0               	btfss	_csFlag,5
  4200     01B9  29BB               	goto	u2921
  4201     01BA  29BC               	goto	u2920
  4202     01BB                     u2921:
  4203     01BB  29BF               	goto	l418
  4204     01BC                     u2920:
  4205     01BC                     l428:	
  4206                           ;main.c: 442:            csFlag.POS == 1) {;main.c: 443:     do { LATAbits.LATA0 = 1; } 
      +                          while(0);
  4207                           
  4208     01BC  0022               	movlb	2	; select bank2
  4209     01BD  140C               	bsf	12,0	;volatile
  4210     01BE  29A8               	goto	l2461
  4211     01BF                     l418:
  4212     01BF                     l2475:
  4213                           
  4214                           ;main.c: 448:   for (uint8_t i = 0; i < 11; i++) {
  4215     01BF  0020               	movlb	0	; select bank0
  4216     01C0  01C7               	clrf	LED_output@i
  4217     01C1                     l2481:
  4218                           
  4219                           ;main.c: 449:     data_buf[i] = 0;
  4220     01C1  0847               	movf	LED_output@i,w
  4221     01C2  3E20               	addlw	(low (_data_buf| 0))& (0+255)
  4222     01C3  0086               	movwf	6
  4223     01C4  0187               	clrf	7
  4224     01C5  0181               	clrf	1
  4225     01C6                     l2483:
  4226                           
  4227                           ;main.c: 450:   }
  4228     01C6  3001               	movlw	1
  4229     01C7  00C5               	movwf	??_LED_output
  4230     01C8  0845               	movf	??_LED_output,w
  4231     01C9  07C7               	addwf	LED_output@i,f
  4232     01CA                     l2485:
  4233     01CA  300B               	movlw	11
  4234     01CB  0247               	subwf	LED_output@i,w
  4235     01CC  1C03               	skipc
  4236     01CD  29CF               	goto	u2931
  4237     01CE  29D0               	goto	u2930
  4238     01CF                     u2931:
  4239     01CF  29C1               	goto	l2481
  4240     01D0                     u2930:
  4241     01D0                     l342:
  4242     01D0  0008               	return
  4243     01D1                     __end_of_LED_output:
  4244                           
  4245                           	psect	text14
  4246     04D5                     __ptext14:	
  4247 ;; *************** function _LoBeam_ON *****************
  4248 ;; Defined at:
  4249 ;;		line 166 in file "main.c"
  4250 ;; Parameters:    Size  Location     Type
  4251 ;;		None
  4252 ;; Auto vars:     Size  Location     Type
  4253 ;;		None
  4254 ;; Return value:  Size  Location     Type
  4255 ;;                  1    wreg      void 
  4256 ;; Registers used:
  4257 ;;		None
  4258 ;; Tracked objects:
  4259 ;;		On entry : 0/0
  4260 ;;		On exit  : 0/0
  4261 ;;		Unchanged: 0/0
  4262 ;; Data sizes:     COMMON   BANK0   BANK1   BANK2   BANK3   BANK4   BANK5   BANK6
  4263 ;;      Params:         0       0       0       0       0       0       0       0
  4264 ;;      Locals:         0       0       0       0       0       0       0       0
  4265 ;;      Temps:          0       0       0       0       0       0       0       0
  4266 ;;      Totals:         0       0       0       0       0       0       0       0
  4267 ;;Total ram usage:        0 bytes
  4268 ;; Hardware stack levels used: 1
  4269 ;; Hardware stack levels required when called: 4
  4270 ;; This function calls:
  4271 ;;		Nothing
  4272 ;; This function is called by:
  4273 ;;		_LED_output
  4274 ;;		_main
  4275 ;; This function uses a non-reentrant model
  4276 ;;
  4277                           
  4278     04D5                     _LoBeam_ON:	
  4279                           ;psect for function _LoBeam_ON
  4280                           
  4281     04D5                     l301:	
  4282                           ;incstack = 0
  4283                           ; Regs used in _LoBeam_ON: []
  4284                           ;main.c: 167:   do { LATBbits.LATB0 = 1; } while(0);
  4285                           
  4286     04D5  0022               	movlb	2	; select bank2
  4287     04D6  140D               	bsf	13,0	;volatile
  4288     04D7                     l302:
  4289                           
  4290                           ;main.c: 168:   __nop();
  4291     04D7  0000               	nop
  4292                           
  4293                           ;main.c: 169:   __nop();
  4294     04D8  0000               	nop
  4295                           
  4296                           ;main.c: 170:   __nop();
  4297     04D9  0000               	nop
  4298     04DA                     l303:
  4299     04DA  0008               	return
  4300     04DB                     __end_of_LoBeam_ON:
  4301                           
  4302                           	psect	text15
  4303     03C0                     __ptext15:	
  4304 ;; *************** function _DRL_ON *****************
  4305 ;; Defined at:
  4306 ;;		line 285 in file "main.c"
  4307 ;; Parameters:    Size  Location     Type
  4308 ;;		None
  4309 ;; Auto vars:     Size  Location     Type
  4310 ;;		None
  4311 ;; Return value:  Size  Location     Type
  4312 ;;                  1    wreg      void 
  4313 ;; Registers used:
  4314 ;;		wreg, status,2, status,0
  4315 ;; Tracked objects:
  4316 ;;		On entry : 0/0
  4317 ;;		On exit  : 0/0
  4318 ;;		Unchanged: 0/0
  4319 ;; Data sizes:     COMMON   BANK0   BANK1   BANK2   BANK3   BANK4   BANK5   BANK6
  4320 ;;      Params:         0       0       0       0       0       0       0       0
  4321 ;;      Locals:         0       0       0       0       0       0       0       0
  4322 ;;      Temps:          0       0       0       0       0       0       0       0
  4323 ;;      Totals:         0       0       0       0       0       0       0       0
  4324 ;;Total ram usage:        0 bytes
  4325 ;; Hardware stack levels used: 1
  4326 ;; Hardware stack levels required when called: 4
  4327 ;; This function calls:
  4328 ;;		Nothing
  4329 ;; This function is called by:
  4330 ;;		_LED_output
  4331 ;; This function uses a non-reentrant model
  4332 ;;
  4333                           
  4334     03C0                     _DRL_ON:	
  4335                           ;psect for function _DRL_ON
  4336                           
  4337     03C0                     l2281:	
  4338                           ;incstack = 0
  4339                           ; Regs used in _DRL_ON: [wreg+status,2+status,0]
  4340                           
  4341                           
  4342                           ;main.c: 286: if(fLampSide==0){
  4343     03C0  0020               	movlb	0	; select bank0
  4344     03C1  083C               	movf	_fLampSide,w
  4345     03C2  1D03               	btfss	3,2
  4346     03C3  2BC5               	goto	u2201
  4347     03C4  2BC6               	goto	u2200
  4348     03C5                     u2201:
  4349     03C5  2BD5               	goto	l319
  4350     03C6                     u2200:
  4351     03C6                     l2283:
  4352                           
  4353                           ;main.c: 288:   if (csFlag.turnLight_R == 1) {
  4354     03C6  1C40               	btfss	_csFlag,0
  4355     03C7  2BC9               	goto	u2211
  4356     03C8  2BCA               	goto	u2210
  4357     03C9                     u2211:
  4358     03C9  2BCF               	goto	l324
  4359     03CA                     u2210:
  4360     03CA                     l321:	
  4361                           ;main.c: 289:     do { LATAbits.LATA6 = 0; } while(0);
  4362                           
  4363     03CA  0022               	movlb	2	; select bank2
  4364     03CB  130C               	bcf	12,6	;volatile
  4365     03CC                     l2285:
  4366                           
  4367                           ;main.c: 290:     CCPR1L = 0;
  4368     03CC  0025               	movlb	5	; select bank5
  4369     03CD  0191               	clrf	17	;volatile
  4370                           
  4371                           ;main.c: 291:   } else {
  4372     03CE  2BDF               	goto	l333
  4373     03CF                     l324:	
  4374                           ;main.c: 293:     do { LATAbits.LATA6 = 0; } while(0);
  4375                           
  4376     03CF  0022               	movlb	2	; select bank2
  4377     03D0  130C               	bcf	12,6	;volatile
  4378     03D1                     l2287:
  4379                           
  4380                           ;main.c: 294:     CCPR1L = 201;
  4381     03D1  30C9               	movlw	201
  4382     03D2  0025               	movlb	5	; select bank5
  4383     03D3  0091               	movwf	17	;volatile
  4384     03D4  2BDF               	goto	l333
  4385     03D5                     l319:
  4386                           
  4387                           ;main.c: 298:   if (csFlag.turnLight_L == 1) {
  4388     03D5  1CC0               	btfss	_csFlag,1
  4389     03D6  2BD8               	goto	u2221
  4390     03D7  2BD9               	goto	u2220
  4391     03D8                     u2221:
  4392     03D8  2BDC               	goto	l331
  4393     03D9                     u2220:
  4394     03D9                     l328:	
  4395                           ;main.c: 299:     do { LATAbits.LATA6 = 0; } while(0);
  4396                           
  4397     03D9  0022               	movlb	2	; select bank2
  4398     03DA  130C               	bcf	12,6	;volatile
  4399     03DB  2BCC               	goto	l2285
  4400     03DC                     l331:	
  4401                           ;main.c: 303:     do { LATAbits.LATA6 = 0; } while(0);
  4402                           
  4403     03DC  0022               	movlb	2	; select bank2
  4404     03DD  130C               	bcf	12,6	;volatile
  4405     03DE  2BD1               	goto	l2287
  4406     03DF                     l333:
  4407     03DF  0008               	return
  4408     03E0                     __end_of_DRL_ON:
  4409                           
  4410                           	psect	text16
  4411     03FE                     __ptext16:	
  4412 ;; *************** function _Exception_handling *****************
  4413 ;; Defined at:
  4414 ;;		line 271 in file "main.c"
  4415 ;; Parameters:    Size  Location     Type
  4416 ;;		None
  4417 ;; Auto vars:     Size  Location     Type
  4418 ;;		None
  4419 ;; Return value:  Size  Location     Type
  4420 ;;                  1    wreg      void 
  4421 ;; Registers used:
  4422 ;;		wreg, status,2, status,0, pclath, cstack
  4423 ;; Tracked objects:
  4424 ;;		On entry : 0/0
  4425 ;;		On exit  : 0/0
  4426 ;;		Unchanged: 0/0
  4427 ;; Data sizes:     COMMON   BANK0   BANK1   BANK2   BANK3   BANK4   BANK5   BANK6
  4428 ;;      Params:         0       0       0       0       0       0       0       0
  4429 ;;      Locals:         0       0       0       0       0       0       0       0
  4430 ;;      Temps:          0       0       0       0       0       0       0       0
  4431 ;;      Totals:         0       0       0       0       0       0       0       0
  4432 ;;Total ram usage:        0 bytes
  4433 ;; Hardware stack levels used: 1
  4434 ;; Hardware stack levels required when called: 5
  4435 ;; This function calls:
  4436 ;;		_POS_ON
  4437 ;; This function is called by:
  4438 ;;		_main
  4439 ;; This function uses a non-reentrant model
  4440 ;;
  4441                           
  4442     03FE                     _Exception_handling:	
  4443                           ;psect for function _Exception_handling
  4444                           
  4445     03FE                     l2295:	
  4446                           ;incstack = 0
  4447                           ; Regs used in _Exception_handling: [wreg+status,2+status,0+pclath+cstack]
  4448                           
  4449                           
  4450                           ;main.c: 272:   if ((data_buf[2] == 6) && (data_buf[10] == 0xD5)) {
  4451     03FE  3006               	movlw	6
  4452     03FF  0020               	movlb	0	; select bank0
  4453     0400  0622               	xorwf	_data_buf+2,w
  4454     0401  1D03               	btfss	3,2
  4455     0402  2C04               	goto	u2231
  4456     0403  2C05               	goto	u2230
  4457     0404                     u2231:
  4458     0404  2C19               	goto	l2303
  4459     0405                     u2230:
  4460     0405                     l2297:
  4461     0405  30D5               	movlw	213
  4462     0406  062A               	xorwf	_data_buf+10,w
  4463     0407  1D03               	btfss	3,2
  4464     0408  2C0A               	goto	u2241
  4465     0409  2C0B               	goto	u2240
  4466     040A                     u2241:
  4467     040A  2C19               	goto	l2303
  4468     040B                     u2240:
  4469     040B                     l309:	
  4470                           ;main.c: 273:     do { LATAbits.LATA1 = 1; } while(0);
  4471                           
  4472     040B  0022               	movlb	2	; select bank2
  4473     040C  148C               	bsf	12,1	;volatile
  4474     040D                     l310:
  4475                           
  4476                           ;main.c: 274:     fException = 1;
  4477     040D  0020               	movlb	0	; select bank0
  4478     040E  01BE               	clrf	_fException
  4479     040F  0ABE               	incf	_fException,f
  4480     0410                     l311:	
  4481                           ;main.c: 276:     do { LATBbits.LATB0 = 0; } while(0);
  4482                           
  4483     0410  0022               	movlb	2	; select bank2
  4484     0411  100D               	bcf	13,0	;volatile
  4485     0412                     l313:	
  4486                           ;main.c: 277:     do { LATAbits.LATA0 = 0; } while(0);
  4487                           
  4488     0412  100C               	bcf	12,0	;volatile
  4489     0413                     l2299:
  4490                           
  4491                           ;main.c: 278:     POS_ON();
  4492     0413  3184  24DB  3183   	fcall	_POS_ON
  4493     0416                     l2301:
  4494                           
  4495                           ;main.c: 279:     T10MS_CNT = 0;
  4496     0416  0020               	movlb	0	; select bank0
  4497     0417  01BF               	clrf	_T10MS_CNT	;volatile
  4498                           
  4499                           ;main.c: 280:   } else {
  4500     0418  2C1A               	goto	l316
  4501     0419                     l2303:
  4502                           
  4503                           ;main.c: 281:     fException = 0;
  4504     0419  01BE               	clrf	_fException
  4505     041A                     l316:
  4506     041A  0008               	return
  4507     041B                     __end_of_Exception_handling:
  4508                           
  4509                           	psect	text17
  4510     04DB                     __ptext17:	
  4511 ;; *************** function _POS_ON *****************
  4512 ;; Defined at:
  4513 ;;		line 326 in file "main.c"
  4514 ;; Parameters:    Size  Location     Type
  4515 ;;		None
  4516 ;; Auto vars:     Size  Location     Type
  4517 ;;		None
  4518 ;; Return value:  Size  Location     Type
  4519 ;;                  1    wreg      void 
  4520 ;; Registers used:
  4521 ;;		wreg
  4522 ;; Tracked objects:
  4523 ;;		On entry : 0/0
  4524 ;;		On exit  : 0/0
  4525 ;;		Unchanged: 0/0
  4526 ;; Data sizes:     COMMON   BANK0   BANK1   BANK2   BANK3   BANK4   BANK5   BANK6
  4527 ;;      Params:         0       0       0       0       0       0       0       0
  4528 ;;      Locals:         0       0       0       0       0       0       0       0
  4529 ;;      Temps:          0       0       0       0       0       0       0       0
  4530 ;;      Totals:         0       0       0       0       0       0       0       0
  4531 ;;Total ram usage:        0 bytes
  4532 ;; Hardware stack levels used: 1
  4533 ;; Hardware stack levels required when called: 4
  4534 ;; This function calls:
  4535 ;;		Nothing
  4536 ;; This function is called by:
  4537 ;;		_Exception_handling
  4538 ;;		_LED_output
  4539 ;;		_main
  4540 ;; This function uses a non-reentrant model
  4541 ;;
  4542                           
  4543     04DB                     _POS_ON:	
  4544                           ;psect for function _POS_ON
  4545                           
  4546     04DB                     l336:	
  4547                           ;incstack = 0
  4548                           ; Regs used in _POS_ON: [wreg]
  4549                           ;main.c: 327:   do { LATAbits.LATA6 = 1; } while(0);
  4550                           
  4551     04DB  0022               	movlb	2	; select bank2
  4552     04DC  170C               	bsf	12,6	;volatile
  4553     04DD                     l2279:
  4554                           
  4555                           ;main.c: 328:   CCPR1L = 47;
  4556     04DD  302F               	movlw	47
  4557     04DE  0025               	movlb	5	; select bank5
  4558     04DF  0091               	movwf	17	;volatile
  4559     04E0                     l338:
  4560     04E0  0008               	return
  4561     04E1                     __end_of_POS_ON:
  4562                           
  4563                           	psect	intentry
  4564     0004                     __pintentry:	
  4565 ;; *************** function _INTERRUPT_InterruptManager *****************
  4566 ;; Defined at:
  4567 ;;		line 52 in file "mcc_generated_files/interrupt_manager.c"
  4568 ;; Parameters:    Size  Location     Type
  4569 ;;		None
  4570 ;; Auto vars:     Size  Location     Type
  4571 ;;		None
  4572 ;; Return value:  Size  Location     Type
  4573 ;;                  1    wreg      void 
  4574 ;; Registers used:
  4575 ;;		wreg, status,2, status,0, pclath, cstack
  4576 ;; Tracked objects:
  4577 ;;		On entry : 0/0
  4578 ;;		On exit  : 0/0
  4579 ;;		Unchanged: 0/0
  4580 ;; Data sizes:     COMMON   BANK0   BANK1   BANK2   BANK3   BANK4   BANK5   BANK6
  4581 ;;      Params:         0       0       0       0       0       0       0       0
  4582 ;;      Locals:         0       0       0       0       0       0       0       0
  4583 ;;      Temps:          0       0       0       0       0       0       0       0
  4584 ;;      Totals:         0       0       0       0       0       0       0       0
  4585 ;;Total ram usage:        0 bytes
  4586 ;; Hardware stack levels used: 1
  4587 ;; Hardware stack levels required when called: 3
  4588 ;; This function calls:
  4589 ;;		_ECCP3_CaptureISR
  4590 ;;		_TMR0_ISR
  4591 ;; This function is called by:
  4592 ;;		Interrupt level 1
  4593 ;; This function uses a non-reentrant model
  4594 ;;
  4595                           
  4596     0004                     _INTERRUPT_InterruptManager:
  4597                           
  4598                           ;incstack = 0
  4599     0004  147E               	bsf	int$flags,0	;set compiler interrupt flag (level 1)
  4600                           
  4601                           ; Regs used in _INTERRUPT_InterruptManager: [wreg+status,2+status,0+pclath+cstack]
  4602     0005  3180               	pagesel	$
  4603     0006                     i1l2141:
  4604                           
  4605                           ;mcc_generated_files/interrupt_manager.c: 55:     if(INTCONbits.TMR0IE == 1 && INTCONbit
      +                          s.TMR0IF == 1)
  4606     0006  1E8B               	btfss	11,5	;volatile
  4607     0007  2809               	goto	u211_21
  4608     0008  280A               	goto	u211_20
  4609     0009                     u211_21:
  4610     0009  2812               	goto	i1l53
  4611     000A                     u211_20:
  4612     000A                     i1l2143:
  4613     000A  1D0B               	btfss	11,2	;volatile
  4614     000B  280D               	goto	u212_21
  4615     000C  280E               	goto	u212_20
  4616     000D                     u212_21:
  4617     000D  2812               	goto	i1l53
  4618     000E                     u212_20:
  4619     000E                     i1l2145:
  4620                           
  4621                           ;mcc_generated_files/interrupt_manager.c: 56:     {;mcc_generated_files/interrupt_manage
      +                          r.c: 57:         TMR0_ISR();
  4622     000E  3184  2434  3180   	fcall	_TMR0_ISR
  4623                           
  4624                           ;mcc_generated_files/interrupt_manager.c: 58:     }
  4625     0011  2824               	goto	i1l59
  4626     0012                     i1l53:	
  4627                           ;mcc_generated_files/interrupt_manager.c: 59:     else if(INTCONbits.PEIE == 1)
  4628                           
  4629     0012  1F0B               	btfss	11,6	;volatile
  4630     0013  2815               	goto	u213_21
  4631     0014  2816               	goto	u213_20
  4632     0015                     u213_21:
  4633     0015  2824               	goto	i1l59
  4634     0016                     u213_20:
  4635     0016                     i1l2147:
  4636                           
  4637                           ;mcc_generated_files/interrupt_manager.c: 60:     {;mcc_generated_files/interrupt_manage
      +                          r.c: 61:         if(PIE3bits.CCP3IE == 1 && PIR3bits.CCP3IF == 1)
  4638     0016  0021               	movlb	1	; select bank1
  4639     0017  1E13               	btfss	19,4	;volatile
  4640     0018  281A               	goto	u214_21
  4641     0019  281B               	goto	u214_20
  4642     001A                     u214_21:
  4643     001A  2824               	goto	i1l58
  4644     001B                     u214_20:
  4645     001B                     i1l2149:
  4646     001B  0020               	movlb	0	; select bank0
  4647     001C  1E13               	btfss	19,4	;volatile
  4648     001D  281F               	goto	u215_21
  4649     001E  2820               	goto	u215_20
  4650     001F                     u215_21:
  4651     001F  2824               	goto	i1l58
  4652     0020                     u215_20:
  4653     0020                     i1l2151:
  4654                           
  4655                           ;mcc_generated_files/interrupt_manager.c: 62:         {;mcc_generated_files/interrupt_ma
      +                          nager.c: 63:             ECCP3_CaptureISR();
  4656     0020  3184  246F  3180   	fcall	_ECCP3_CaptureISR
  4657                           
  4658                           ;mcc_generated_files/interrupt_manager.c: 64:         }
  4659     0023  2824               	goto	i1l59
  4660     0024                     i1l58:	
  4661                           ;mcc_generated_files/interrupt_manager.c: 71:     {;mcc_generated_files/interrupt_manage
      +                          r.c: 73:     }
  4662                           
  4663     0024                     i1l59:
  4664     0024  107E               	bcf	int$flags,0	;clear compiler interrupt flag (level 1)
  4665     0025  0009               	retfie
  4666     0026                     __end_of_INTERRUPT_InterruptManager:
  4667                           
  4668                           	psect	text19
  4669     0434                     __ptext19:	
  4670 ;; *************** function _TMR0_ISR *****************
  4671 ;; Defined at:
  4672 ;;		line 108 in file "mcc_generated_files/tmr0.c"
  4673 ;; Parameters:    Size  Location     Type
  4674 ;;		None
  4675 ;; Auto vars:     Size  Location     Type
  4676 ;;		None
  4677 ;; Return value:  Size  Location     Type
  4678 ;;                  1    wreg      void 
  4679 ;; Registers used:
  4680 ;;		wreg, status,2, status,0, pclath, cstack
  4681 ;; Tracked objects:
  4682 ;;		On entry : 0/0
  4683 ;;		On exit  : 0/0
  4684 ;;		Unchanged: 0/0
  4685 ;; Data sizes:     COMMON   BANK0   BANK1   BANK2   BANK3   BANK4   BANK5   BANK6
  4686 ;;      Params:         0       0       0       0       0       0       0       0
  4687 ;;      Locals:         0       0       0       0       0       0       0       0
  4688 ;;      Temps:          0       0       0       0       0       0       0       0
  4689 ;;      Totals:         0       0       0       0       0       0       0       0
  4690 ;;Total ram usage:        0 bytes
  4691 ;; Hardware stack levels used: 1
  4692 ;; Hardware stack levels required when called: 2
  4693 ;; This function calls:
  4694 ;;		_TMR0_CallBack
  4695 ;; This function is called by:
  4696 ;;		_INTERRUPT_InterruptManager
  4697 ;; This function uses a non-reentrant model
  4698 ;;
  4699                           
  4700     0434                     _TMR0_ISR:	
  4701                           ;psect for function _TMR0_ISR
  4702                           
  4703     0434                     i1l1857:	
  4704                           ;incstack = 0
  4705                           ; Regs used in _TMR0_ISR: [wreg+status,2+status,0+pclath+cstack]
  4706                           
  4707                           
  4708                           ;mcc_generated_files/tmr0.c: 110:     static volatile uint16_t CountCallBack = 0;;mcc_ge
      +                          nerated_files/tmr0.c: 113:     INTCONbits.TMR0IF = 0;
  4709     0434  110B               	bcf	11,2	;volatile
  4710     0435                     i1l1859:
  4711                           
  4712                           ;mcc_generated_files/tmr0.c: 115:     TMR0 = timer0ReloadVal;
  4713     0435  0875               	movf	_timer0ReloadVal,w	;volatile
  4714     0436  0020               	movlb	0	; select bank0
  4715     0437  0095               	movwf	21	;volatile
  4716                           
  4717                           ;mcc_generated_files/tmr0.c: 118:     if (++CountCallBack >= 10)
  4718     0438  3001               	movlw	1
  4719     0439  07B1               	addwf	TMR0_ISR@CountCallBack,f	;volatile
  4720     043A  3000               	movlw	0
  4721     043B  3DB2               	addwfc	TMR0_ISR@CountCallBack+1,f	;volatile
  4722     043C  3000               	movlw	0
  4723     043D  0232               	subwf	TMR0_ISR@CountCallBack+1,w	;volatile
  4724     043E  300A               	movlw	10
  4725     043F  1903               	skipnz
  4726     0440  0231               	subwf	TMR0_ISR@CountCallBack,w	;volatile
  4727     0441  1C03               	skipc
  4728     0442  2C44               	goto	u129_21
  4729     0443  2C45               	goto	u129_20
  4730     0444                     u129_21:
  4731     0444  2C4B               	goto	i1l172
  4732     0445                     u129_20:
  4733     0445                     i1l1861:
  4734                           
  4735                           ;mcc_generated_files/tmr0.c: 119:     {;mcc_generated_files/tmr0.c: 121:         TMR0_Ca
      +                          llBack();
  4736     0445  3184  2498  3184   	fcall	_TMR0_CallBack
  4737     0448                     i1l1863:
  4738                           
  4739                           ;mcc_generated_files/tmr0.c: 124:         CountCallBack = 0;
  4740     0448  0020               	movlb	0	; select bank0
  4741     0449  01B1               	clrf	TMR0_ISR@CountCallBack	;volatile
  4742     044A  01B2               	clrf	TMR0_ISR@CountCallBack+1	;volatile
  4743     044B                     i1l172:
  4744     044B  0008               	return
  4745     044C                     __end_of_TMR0_ISR:
  4746                           
  4747                           	psect	text20
  4748     0498                     __ptext20:	
  4749 ;; *************** function _TMR0_CallBack *****************
  4750 ;; Defined at:
  4751 ;;		line 130 in file "mcc_generated_files/tmr0.c"
  4752 ;; Parameters:    Size  Location     Type
  4753 ;;		None
  4754 ;; Auto vars:     Size  Location     Type
  4755 ;;		None
  4756 ;; Return value:  Size  Location     Type
  4757 ;;                  1    wreg      void 
  4758 ;; Registers used:
  4759 ;;		wreg, status,2, status,0, pclath, cstack
  4760 ;; Tracked objects:
  4761 ;;		On entry : 0/0
  4762 ;;		On exit  : 0/0
  4763 ;;		Unchanged: 0/0
  4764 ;; Data sizes:     COMMON   BANK0   BANK1   BANK2   BANK3   BANK4   BANK5   BANK6
  4765 ;;      Params:         0       0       0       0       0       0       0       0
  4766 ;;      Locals:         0       0       0       0       0       0       0       0
  4767 ;;      Temps:          0       0       0       0       0       0       0       0
  4768 ;;      Totals:         0       0       0       0       0       0       0       0
  4769 ;;Total ram usage:        0 bytes
  4770 ;; Hardware stack levels used: 1
  4771 ;; Hardware stack levels required when called: 1
  4772 ;; This function calls:
  4773 ;;		NULL
  4774 ;;		_TMR0_DefaultInterruptHandler
  4775 ;;		_TMR0_EvenHandler
  4776 ;; This function is called by:
  4777 ;;		_TMR0_ISR
  4778 ;; This function uses a non-reentrant model
  4779 ;;
  4780                           
  4781     0498                     _TMR0_CallBack:	
  4782                           ;psect for function _TMR0_CallBack
  4783                           
  4784     0498                     i1l1787:	
  4785                           ;incstack = 0
  4786                           ; Regs used in _TMR0_CallBack: [wreg+status,2+status,0+pclath+cstack]
  4787                           
  4788                           
  4789                           ;mcc_generated_files/tmr0.c: 134:     if(TMR0_InterruptHandler)
  4790     0498  0020               	movlb	0	; select bank0
  4791     0499  0833               	movf	_TMR0_InterruptHandler,w
  4792     049A  0434               	iorwf	_TMR0_InterruptHandler+1,w
  4793     049B  1903               	btfsc	3,2
  4794     049C  2C9E               	goto	u113_21
  4795     049D  2C9F               	goto	u113_20
  4796     049E                     u113_21:
  4797     049E  2CA4               	goto	i1l176
  4798     049F                     u113_20:
  4799     049F                     i1l1789:
  4800                           
  4801                           ;mcc_generated_files/tmr0.c: 135:     {;mcc_generated_files/tmr0.c: 136:         TMR0_In
      +                          terruptHandler();
  4802     049F  0834               	movf	_TMR0_InterruptHandler+1,w
  4803     04A0  008A               	movwf	10
  4804     04A1  0833               	movf	_TMR0_InterruptHandler,w
  4805     04A2  000A               	callw
  4806     04A3  3184               	pagesel	$
  4807     04A4                     i1l176:
  4808     04A4  0008               	return
  4809     04A5                     __end_of_TMR0_CallBack:
  4810                           
  4811                           	psect	text21
  4812     04E5                     __ptext21:	
  4813 ;; *************** function _TMR0_DefaultInterruptHandler *****************
  4814 ;; Defined at:
  4815 ;;		line 144 in file "mcc_generated_files/tmr0.c"
  4816 ;; Parameters:    Size  Location     Type
  4817 ;;		None
  4818 ;; Auto vars:     Size  Location     Type
  4819 ;;		None
  4820 ;; Return value:  Size  Location     Type
  4821 ;;                  1    wreg      void 
  4822 ;; Registers used:
  4823 ;;		None
  4824 ;; Tracked objects:
  4825 ;;		On entry : 0/0
  4826 ;;		On exit  : 0/0
  4827 ;;		Unchanged: 0/0
  4828 ;; Data sizes:     COMMON   BANK0   BANK1   BANK2   BANK3   BANK4   BANK5   BANK6
  4829 ;;      Params:         0       0       0       0       0       0       0       0
  4830 ;;      Locals:         0       0       0       0       0       0       0       0
  4831 ;;      Temps:          0       0       0       0       0       0       0       0
  4832 ;;      Totals:         0       0       0       0       0       0       0       0
  4833 ;;Total ram usage:        0 bytes
  4834 ;; Hardware stack levels used: 1
  4835 ;; This function calls:
  4836 ;;		Nothing
  4837 ;; This function is called by:
  4838 ;;		_TMR0_Initialize
  4839 ;;		_TMR0_CallBack
  4840 ;; This function uses a non-reentrant model
  4841 ;;
  4842                           
  4843     04E5                     _TMR0_DefaultInterruptHandler:	
  4844                           ;psect for function _TMR0_DefaultInterruptHandler
  4845                           
  4846     04E5                     i1l182:	
  4847                           ;incstack = 0
  4848                           ; Regs used in _TMR0_DefaultInterruptHandler: []
  4849                           
  4850     04E5  0008               	return
  4851     04E6                     __end_of_TMR0_DefaultInterruptHandler:
  4852                           
  4853                           	psect	text22
  4854     0460                     __ptext22:	
  4855 ;; *************** function _TMR0_EvenHandler *****************
  4856 ;; Defined at:
  4857 ;;		line 649 in file "main.c"
  4858 ;; Parameters:    Size  Location     Type
  4859 ;;		None
  4860 ;; Auto vars:     Size  Location     Type
  4861 ;;		None
  4862 ;; Return value:  Size  Location     Type
  4863 ;;                  1    wreg      void 
  4864 ;; Registers used:
  4865 ;;		wreg, status,2, status,0
  4866 ;; Tracked objects:
  4867 ;;		On entry : 0/0
  4868 ;;		On exit  : 0/0
  4869 ;;		Unchanged: 0/0
  4870 ;; Data sizes:     COMMON   BANK0   BANK1   BANK2   BANK3   BANK4   BANK5   BANK6
  4871 ;;      Params:         0       0       0       0       0       0       0       0
  4872 ;;      Locals:         0       0       0       0       0       0       0       0
  4873 ;;      Temps:          1       0       0       0       0       0       0       0
  4874 ;;      Totals:         1       0       0       0       0       0       0       0
  4875 ;;Total ram usage:        1 bytes
  4876 ;; Hardware stack levels used: 1
  4877 ;; This function calls:
  4878 ;;		Nothing
  4879 ;; This function is called by:
  4880 ;;		_main
  4881 ;;		_TMR0_CallBack
  4882 ;; This function uses a non-reentrant model
  4883 ;;
  4884                           
  4885     0460                     _TMR0_EvenHandler:	
  4886                           ;psect for function _TMR0_EvenHandler
  4887                           
  4888     0460                     i1l1695:	
  4889                           ;incstack = 0
  4890                           ; Regs used in _TMR0_EvenHandler: [wreg+status,2+status,0]
  4891                           
  4892                           
  4893                           ;main.c: 650:   T10MS_CNT++;
  4894     0460  3001               	movlw	1
  4895     0461  00F6               	movwf	??_TMR0_EvenHandler
  4896     0462  0876               	movf	??_TMR0_EvenHandler,w
  4897     0463  0020               	movlb	0	; select bank0
  4898     0464  07BF               	addwf	_T10MS_CNT,f	;volatile
  4899     0465                     i1l1697:
  4900                           
  4901                           ;main.c: 651:   if (T10MS_CNT >= 200) {
  4902     0465  30C8               	movlw	200
  4903     0466  023F               	subwf	_T10MS_CNT,w	;volatile
  4904     0467  1C03               	skipc
  4905     0468  2C6A               	goto	u111_21
  4906     0469  2C6B               	goto	u111_20
  4907     046A                     u111_21:
  4908     046A  2C6E               	goto	i1l519
  4909     046B                     u111_20:
  4910     046B                     i1l1699:
  4911                           
  4912                           ;main.c: 652:     fException2 = 1;
  4913     046B  01BD               	clrf	_fException2
  4914     046C  0ABD               	incf	_fException2,f
  4915     046D                     i1l1701:
  4916                           
  4917                           ;main.c: 653:     T10MS_CNT = 0;
  4918     046D  01BF               	clrf	_T10MS_CNT	;volatile
  4919     046E                     i1l519:
  4920     046E  0008               	return
  4921     046F                     __end_of_TMR0_EvenHandler:
  4922                           
  4923                           	psect	text23
  4924     046F                     __ptext23:	
  4925 ;; *************** function _ECCP3_CaptureISR *****************
  4926 ;; Defined at:
  4927 ;;		line 80 in file "mcc_generated_files/eccp3.c"
  4928 ;; Parameters:    Size  Location     Type
  4929 ;;		None
  4930 ;; Auto vars:     Size  Location     Type
  4931 ;;  module          2    4[COMMON] struct CCPR3Reg_tag
  4932 ;; Return value:  Size  Location     Type
  4933 ;;                  1    wreg      void 
  4934 ;; Registers used:
  4935 ;;		wreg, status,2, status,0, pclath, cstack
  4936 ;; Tracked objects:
  4937 ;;		On entry : 0/0
  4938 ;;		On exit  : 0/0
  4939 ;;		Unchanged: 0/0
  4940 ;; Data sizes:     COMMON   BANK0   BANK1   BANK2   BANK3   BANK4   BANK5   BANK6
  4941 ;;      Params:         0       0       0       0       0       0       0       0
  4942 ;;      Locals:         2       0       0       0       0       0       0       0
  4943 ;;      Temps:          0       0       0       0       0       0       0       0
  4944 ;;      Totals:         2       0       0       0       0       0       0       0
  4945 ;;Total ram usage:        2 bytes
  4946 ;; Hardware stack levels used: 1
  4947 ;; Hardware stack levels required when called: 1
  4948 ;; This function calls:
  4949 ;;		_ECCP3_CallBack
  4950 ;; This function is called by:
  4951 ;;		_INTERRUPT_InterruptManager
  4952 ;; This function uses a non-reentrant model
  4953 ;;
  4954                           
  4955     046F                     _ECCP3_CaptureISR:	
  4956                           ;psect for function _ECCP3_CaptureISR
  4957                           
  4958     046F                     i1l1865:	
  4959                           ;incstack = 0
  4960                           ; Regs used in _ECCP3_CaptureISR: [wreg+status,2+status,0+pclath+cstack]
  4961                           
  4962                           
  4963                           ;mcc_generated_files/eccp3.c: 82:     CCP3_PERIOD_REG_T module;;mcc_generated_files/eccp
      +                          3.c: 85:     PIR3bits.CCP3IF = 0;
  4964     046F  0020               	movlb	0	; select bank0
  4965     0470  1213               	bcf	19,4	;volatile
  4966     0471                     i1l1867:
  4967                           
  4968                           ;mcc_generated_files/eccp3.c: 88:     module.ccpr3l = CCPR3L;
  4969     0471  0026               	movlb	6	; select bank6
  4970     0472  0811               	movf	17,w	;volatile
  4971     0473  00FA               	movwf	ECCP3_CaptureISR@module
  4972                           
  4973                           ;mcc_generated_files/eccp3.c: 89:     module.ccpr3h = CCPR3H;
  4974     0474  0812               	movf	18,w	;volatile
  4975     0475  00FB               	movwf	ECCP3_CaptureISR@module+1
  4976     0476                     i1l1869:
  4977                           
  4978                           ;mcc_generated_files/eccp3.c: 92:     ECCP3_CallBack(module.ccpr3_16Bit);
  4979     0476  087B               	movf	ECCP3_CaptureISR@module+1,w
  4980     0477  00F7               	movwf	ECCP3_CallBack@capturedValue+1
  4981     0478  087A               	movf	ECCP3_CaptureISR@module,w
  4982     0479  00F6               	movwf	ECCP3_CallBack@capturedValue
  4983     047A  3181  21D1  3184   	fcall	_ECCP3_CallBack
  4984     047D                     i1l232:
  4985     047D  0008               	return
  4986     047E                     __end_of_ECCP3_CaptureISR:
  4987                           
  4988                           	psect	text24
  4989     01D1                     __ptext24:	
  4990 ;; *************** function _ECCP3_CallBack *****************
  4991 ;; Defined at:
  4992 ;;		line 575 in file "main.c"
  4993 ;; Parameters:    Size  Location     Type
  4994 ;;  capturedValu    2    0[COMMON] unsigned short 
  4995 ;; Auto vars:     Size  Location     Type
  4996 ;;		None
  4997 ;; Return value:  Size  Location     Type
  4998 ;;                  1    wreg      void 
  4999 ;; Registers used:
  5000 ;;		wreg, status,2, status,0
  5001 ;; Tracked objects:
  5002 ;;		On entry : 0/0
  5003 ;;		On exit  : 0/0
  5004 ;;		Unchanged: 0/0
  5005 ;; Data sizes:     COMMON   BANK0   BANK1   BANK2   BANK3   BANK4   BANK5   BANK6
  5006 ;;      Params:         2       0       0       0       0       0       0       0
  5007 ;;      Locals:         0       0       0       0       0       0       0       0
  5008 ;;      Temps:          2       0       0       0       0       0       0       0
  5009 ;;      Totals:         4       0       0       0       0       0       0       0
  5010 ;;Total ram usage:        4 bytes
  5011 ;; Hardware stack levels used: 1
  5012 ;; This function calls:
  5013 ;;		Nothing
  5014 ;; This function is called by:
  5015 ;;		_ECCP3_CaptureISR
  5016 ;; This function uses a non-reentrant model
  5017 ;;
  5018                           
  5019     01D1                     _ECCP3_CallBack:	
  5020                           ;psect for function _ECCP3_CallBack
  5021                           
  5022     01D1                     i1l1791:	
  5023                           ;incstack = 0
  5024                           ; Regs used in _ECCP3_CallBack: [wreg+status,2+status,0]
  5025                           
  5026                           
  5027                           ;main.c: 576:   static uint16_t pluse_width_LO = 0;;main.c: 577:   static uint16_t pluse
      +                          _width_HI = 0;;main.c: 578:   static uint8_t HI_us = 0;;main.c: 579:   static uint8_t LO
      +                          _us = 0;;main.c: 580:   static uint8_t diff_us = 0;;main.c: 581:   static uint16_t falli
      +                          ng_edge_time = 0;;main.c: 582:   static uint16_t rising_edge_time = 0;;main.c: 583:   st
      +                          atic _Bool rise_edge_flag = 0;;main.c: 584:   static _Bool fHead = 0;;main.c: 585:   sta
      +                          tic uint8_t data_cnt = 0;;main.c: 588:   if (CCP3CON == 0x04) {
  5028     01D1  3004               	movlw	4
  5029     01D2  0026               	movlb	6	; select bank6
  5030     01D3  0613               	xorwf	19,w	;volatile
  5031     01D4  1D03               	btfss	3,2
  5032     01D5  29D7               	goto	u114_21
  5033     01D6  29D8               	goto	u114_20
  5034     01D7                     u114_21:
  5035     01D7  2A6E               	goto	i1l1831
  5036     01D8                     u114_20:
  5037     01D8                     i1l1793:
  5038                           
  5039                           ;main.c: 589:     falling_edge_time = capturedValue;
  5040     01D8  0877               	movf	ECCP3_CallBack@capturedValue+1,w
  5041     01D9  00F1               	movwf	ECCP3_CallBack@falling_edge_time+1
  5042     01DA  0876               	movf	ECCP3_CallBack@capturedValue,w
  5043     01DB  00F0               	movwf	ECCP3_CallBack@falling_edge_time
  5044                           
  5045                           ;main.c: 590:     CCP3CON = 0x05;
  5046     01DC  3005               	movlw	5
  5047     01DD  0093               	movwf	19	;volatile
  5048     01DE                     i1l1795:
  5049                           
  5050                           ;main.c: 591:     if (rise_edge_flag == 1) {
  5051     01DE  0020               	movlb	0	; select bank0
  5052     01DF  0339               	decf	ECCP3_CallBack@rise_edge_flag,w
  5053     01E0  1D03               	btfss	3,2
  5054     01E1  29E3               	goto	u115_21
  5055     01E2  29E4               	goto	u115_20
  5056     01E3                     u115_21:
  5057     01E3  2A9C               	goto	i1l515
  5058     01E4                     u115_20:
  5059     01E4                     i1l1797:
  5060                           
  5061                           ;main.c: 592:       rise_edge_flag = 0;
  5062     01E4  01B9               	clrf	ECCP3_CallBack@rise_edge_flag
  5063     01E5                     i1l1799:
  5064                           
  5065                           ;main.c: 594:       if (falling_edge_time >= rising_edge_time) {
  5066     01E5  082C               	movf	ECCP3_CallBack@rising_edge_time+1,w
  5067     01E6  0271               	subwf	ECCP3_CallBack@falling_edge_time+1,w
  5068     01E7  1D03               	skipz
  5069     01E8  29EB               	goto	u116_25
  5070     01E9  082B               	movf	ECCP3_CallBack@rising_edge_time,w
  5071     01EA  0270               	subwf	ECCP3_CallBack@falling_edge_time,w
  5072     01EB                     u116_25:
  5073     01EB  1C03               	skipc
  5074     01EC  29EE               	goto	u116_21
  5075     01ED  29EF               	goto	u116_20
  5076     01EE                     u116_21:
  5077     01EE  29F6               	goto	i1l1803
  5078     01EF                     u116_20:
  5079     01EF                     i1l1801:
  5080                           
  5081                           ;main.c: 595:         pluse_width_HI = falling_edge_time - rising_edge_time;
  5082     01EF  082B               	movf	ECCP3_CallBack@rising_edge_time,w
  5083     01F0  0270               	subwf	ECCP3_CallBack@falling_edge_time,w
  5084     01F1  00AD               	movwf	ECCP3_CallBack@pluse_width_HI
  5085     01F2  082C               	movf	ECCP3_CallBack@rising_edge_time+1,w
  5086     01F3  3B71               	subwfb	ECCP3_CallBack@falling_edge_time+1,w
  5087     01F4  00AE               	movwf	ECCP3_CallBack@pluse_width_HI+1
  5088                           
  5089                           ;main.c: 596:       } else {
  5090     01F5  2A02               	goto	i1l494
  5091     01F6                     i1l1803:
  5092                           
  5093                           ;main.c: 597:         pluse_width_HI = (0xffff - rising_edge_time) + falling_edge_time;
  5094     01F6  082C               	movf	ECCP3_CallBack@rising_edge_time+1,w
  5095     01F7  00F9               	movwf	??_ECCP3_CallBack+1
  5096     01F8  082B               	movf	ECCP3_CallBack@rising_edge_time,w
  5097     01F9  00F8               	movwf	??_ECCP3_CallBack
  5098     01FA  09F8               	comf	??_ECCP3_CallBack,f
  5099     01FB  09F9               	comf	??_ECCP3_CallBack+1,f
  5100     01FC  0870               	movf	ECCP3_CallBack@falling_edge_time,w
  5101     01FD  0778               	addwf	??_ECCP3_CallBack,w
  5102     01FE  00AD               	movwf	ECCP3_CallBack@pluse_width_HI
  5103     01FF  0871               	movf	ECCP3_CallBack@falling_edge_time+1,w
  5104     0200  3D79               	addwfc	??_ECCP3_CallBack+1,w
  5105     0201  00AE               	movwf	ECCP3_CallBack@pluse_width_HI+1
  5106     0202                     i1l494:	
  5107                           ;main.c: 598:       }
  5108                           
  5109                           
  5110                           ;main.c: 599:       LO_us = (pluse_width_LO >> 3) & 0xff;
  5111     0202  0830               	movf	ECCP3_CallBack@pluse_width_LO+1,w
  5112     0203  00F9               	movwf	??_ECCP3_CallBack+1
  5113     0204  082F               	movf	ECCP3_CallBack@pluse_width_LO,w
  5114     0205  00F8               	movwf	??_ECCP3_CallBack
  5115     0206  36F9               	lsrf	??_ECCP3_CallBack+1,f
  5116     0207  0CF8               	rrf	??_ECCP3_CallBack,f
  5117     0208  36F9               	lsrf	??_ECCP3_CallBack+1,f
  5118     0209  0CF8               	rrf	??_ECCP3_CallBack,f
  5119     020A  36F9               	lsrf	??_ECCP3_CallBack+1,f
  5120     020B  0CF8               	rrf	??_ECCP3_CallBack,f
  5121     020C  0878               	movf	??_ECCP3_CallBack,w
  5122     020D  00BB               	movwf	ECCP3_CallBack@LO_us
  5123                           
  5124                           ;main.c: 600:       HI_us = (pluse_width_HI >> 3) & 0xff;
  5125     020E  082E               	movf	ECCP3_CallBack@pluse_width_HI+1,w
  5126     020F  00F9               	movwf	??_ECCP3_CallBack+1
  5127     0210  082D               	movf	ECCP3_CallBack@pluse_width_HI,w
  5128     0211  00F8               	movwf	??_ECCP3_CallBack
  5129     0212  36F9               	lsrf	??_ECCP3_CallBack+1,f
  5130     0213  0CF8               	rrf	??_ECCP3_CallBack,f
  5131     0214  36F9               	lsrf	??_ECCP3_CallBack+1,f
  5132     0215  0CF8               	rrf	??_ECCP3_CallBack,f
  5133     0216  36F9               	lsrf	??_ECCP3_CallBack+1,f
  5134     0217  0CF8               	rrf	??_ECCP3_CallBack,f
  5135     0218  0878               	movf	??_ECCP3_CallBack,w
  5136     0219  00F2               	movwf	ECCP3_CallBack@HI_us
  5137     021A                     i1l1805:
  5138                           
  5139                           ;main.c: 601:       if (HI_us > LO_us)
  5140     021A  0872               	movf	ECCP3_CallBack@HI_us,w
  5141     021B  023B               	subwf	ECCP3_CallBack@LO_us,w
  5142     021C  1803               	skipnc
  5143     021D  2A1F               	goto	u117_21
  5144     021E  2A20               	goto	u117_20
  5145     021F                     u117_21:
  5146     021F  2A24               	goto	i1l1809
  5147     0220                     u117_20:
  5148     0220                     i1l1807:
  5149                           
  5150                           ;main.c: 602:         diff_us = HI_us - LO_us;
  5151     0220  083B               	movf	ECCP3_CallBack@LO_us,w
  5152     0221  0272               	subwf	ECCP3_CallBack@HI_us,w
  5153     0222  00BA               	movwf	ECCP3_CallBack@diff_us
  5154     0223  2A27               	goto	i1l496
  5155     0224                     i1l1809:
  5156                           
  5157                           ;main.c: 604:         diff_us = LO_us - HI_us;
  5158     0224  0872               	movf	ECCP3_CallBack@HI_us,w
  5159     0225  023B               	subwf	ECCP3_CallBack@LO_us,w
  5160     0226  00BA               	movwf	ECCP3_CallBack@diff_us
  5161     0227                     i1l496:
  5162                           
  5163                           ;main.c: 606:       if (fHead == 0) {
  5164     0227  0838               	movf	ECCP3_CallBack@fHead,w
  5165     0228  1D03               	btfss	3,2
  5166     0229  2A2B               	goto	u118_21
  5167     022A  2A2C               	goto	u118_20
  5168     022B                     u118_21:
  5169     022B  2A3B               	goto	i1l1819
  5170     022C                     u118_20:
  5171     022C                     i1l498:	
  5172                           ;main.c: 607:         do { LATCbits.LATC4 = 1; } while(0);
  5173                           
  5174     022C  0022               	movlb	2	; select bank2
  5175     022D  160E               	bsf	14,4	;volatile
  5176     022E                     i1l1811:
  5177                           
  5178                           ;main.c: 609:         if (diff_us < (16)) {
  5179     022E  3010               	movlw	16
  5180     022F  0020               	movlb	0	; select bank0
  5181     0230  023A               	subwf	ECCP3_CallBack@diff_us,w
  5182     0231  1803               	skipnc
  5183     0232  2A34               	goto	u119_21
  5184     0233  2A35               	goto	u119_20
  5185     0234                     u119_21:
  5186     0234  2A9C               	goto	i1l515
  5187     0235                     u119_20:
  5188     0235                     i1l1813:
  5189                           
  5190                           ;main.c: 611:           fHead = 1;
  5191     0235  01B8               	clrf	ECCP3_CallBack@fHead
  5192     0236  0AB8               	incf	ECCP3_CallBack@fHead,f
  5193     0237                     i1l1815:
  5194                           
  5195                           ;main.c: 612:           data_cnt = 0;
  5196     0237  01B7               	clrf	ECCP3_CallBack@data_cnt
  5197     0238                     i1l1817:
  5198     0238  0022               	movlb	2	; select bank2
  5199     0239  120E               	bcf	14,4	;volatile
  5200     023A  2A9C               	goto	i1l515
  5201     023B                     i1l1819:
  5202                           
  5203                           ;main.c: 617:         if (diff_us < (16)) {
  5204     023B  3010               	movlw	16
  5205     023C  023A               	subwf	ECCP3_CallBack@diff_us,w
  5206     023D  1803               	skipnc
  5207     023E  2A40               	goto	u120_21
  5208     023F  2A41               	goto	u120_20
  5209     0240                     u120_21:
  5210     0240  2A51               	goto	i1l508
  5211     0241                     u120_20:
  5212     0241                     i1l505:	
  5213                           ;main.c: 619:           do { LATCbits.LATC4 = 0; } while(0);
  5214                           
  5215     0241  0022               	movlb	2	; select bank2
  5216     0242  120E               	bcf	14,4	;volatile
  5217     0243                     i1l1821:
  5218                           
  5219                           ;main.c: 620:           rx_data &= ~(1 << data_cnt);
  5220     0243  3001               	movlw	1
  5221     0244  00F8               	movwf	??_ECCP3_CallBack
  5222     0245  0020               	movlb	0	; select bank0
  5223     0246  0A37               	incf	ECCP3_CallBack@data_cnt,w
  5224     0247  2A49               	goto	u121_24
  5225     0248                     u121_25:
  5226     0248  35F8               	lslf	??_ECCP3_CallBack,f
  5227     0249                     u121_24:
  5228     0249  0B89               	decfsz	9,f
  5229     024A  2A48               	goto	u121_25
  5230     024B  0878               	movf	??_ECCP3_CallBack,w
  5231     024C  3AFF               	xorlw	255
  5232     024D  00F9               	movwf	??_ECCP3_CallBack+1
  5233     024E  0879               	movf	??_ECCP3_CallBack+1,w
  5234     024F  05F4               	andwf	_rx_data,f
  5235                           
  5236                           ;main.c: 621:         } else {
  5237     0250  2A5F               	goto	i1l507
  5238     0251                     i1l508:	
  5239                           ;main.c: 623:           do { LATCbits.LATC4 = 1; } while(0);
  5240                           
  5241     0251  0022               	movlb	2	; select bank2
  5242     0252  160E               	bsf	14,4	;volatile
  5243     0253                     i1l1823:
  5244                           
  5245                           ;main.c: 624:           rx_data |= (1 << data_cnt);
  5246     0253  3001               	movlw	1
  5247     0254  00F8               	movwf	??_ECCP3_CallBack
  5248     0255  0020               	movlb	0	; select bank0
  5249     0256  0A37               	incf	ECCP3_CallBack@data_cnt,w
  5250     0257  2A59               	goto	u122_24
  5251     0258                     u122_25:
  5252     0258  35F8               	lslf	??_ECCP3_CallBack,f
  5253     0259                     u122_24:
  5254     0259  0B89               	decfsz	9,f
  5255     025A  2A58               	goto	u122_25
  5256     025B  0878               	movf	??_ECCP3_CallBack,w
  5257     025C  00F9               	movwf	??_ECCP3_CallBack+1
  5258     025D  0879               	movf	??_ECCP3_CallBack+1,w
  5259     025E  04F4               	iorwf	_rx_data,f
  5260     025F                     i1l507:	
  5261                           ;main.c: 625:         }
  5262                           
  5263                           
  5264                           ;main.c: 627:         data_cnt++;
  5265     025F  3001               	movlw	1
  5266     0260  00F8               	movwf	??_ECCP3_CallBack
  5267     0261  0878               	movf	??_ECCP3_CallBack,w
  5268     0262  07B7               	addwf	ECCP3_CallBack@data_cnt,f
  5269     0263                     i1l1825:
  5270                           
  5271                           ;main.c: 628:         if (data_cnt > 7) {
  5272     0263  3008               	movlw	8
  5273     0264  0237               	subwf	ECCP3_CallBack@data_cnt,w
  5274     0265  1C03               	skipc
  5275     0266  2A68               	goto	u123_21
  5276     0267  2A69               	goto	u123_20
  5277     0268                     u123_21:
  5278     0268  2A6D               	goto	i1l492
  5279     0269                     u123_20:
  5280     0269                     i1l1827:
  5281                           
  5282                           ;main.c: 629:           fHead = 0;
  5283     0269  01B8               	clrf	ECCP3_CallBack@fHead
  5284     026A                     i1l1829:
  5285                           
  5286                           ;main.c: 630:           data_1byte_OK = 1;
  5287     026A  3001               	movlw	1
  5288     026B  00C4               	movwf	_data_1byte_OK	;volatile
  5289     026C  2A9C               	goto	i1l515
  5290     026D                     i1l492:	
  5291                           ;main.c: 633:     }
  5292                           
  5293                           
  5294                           ;main.c: 635:   }
  5295     026D  2A9C               	goto	i1l515
  5296     026E                     i1l1831:
  5297     026E  3005               	movlw	5
  5298     026F  0613               	xorwf	19,w	;volatile
  5299     0270  1D03               	btfss	3,2
  5300     0271  2A73               	goto	u124_21
  5301     0272  2A74               	goto	u124_20
  5302     0273                     u124_21:
  5303     0273  2A9C               	goto	i1l515
  5304     0274                     u124_20:
  5305     0274                     i1l1833:
  5306                           
  5307                           ;main.c: 637:     rising_edge_time = capturedValue;
  5308     0274  0877               	movf	ECCP3_CallBack@capturedValue+1,w
  5309     0275  0020               	movlb	0	; select bank0
  5310     0276  00AC               	movwf	ECCP3_CallBack@rising_edge_time+1
  5311     0277  0876               	movf	ECCP3_CallBack@capturedValue,w
  5312     0278  00AB               	movwf	ECCP3_CallBack@rising_edge_time
  5313                           
  5314                           ;main.c: 638:     CCP3CON = 0x04;
  5315     0279  3004               	movlw	4
  5316     027A  0026               	movlb	6	; select bank6
  5317     027B  0093               	movwf	19	;volatile
  5318                           
  5319                           ;main.c: 640:     if (rising_edge_time >= falling_edge_time) {
  5320     027C  0871               	movf	ECCP3_CallBack@falling_edge_time+1,w
  5321     027D  0020               	movlb	0	; select bank0
  5322     027E  022C               	subwf	ECCP3_CallBack@rising_edge_time+1,w
  5323     027F  1D03               	skipz
  5324     0280  2A83               	goto	u125_25
  5325     0281  0870               	movf	ECCP3_CallBack@falling_edge_time,w
  5326     0282  022B               	subwf	ECCP3_CallBack@rising_edge_time,w
  5327     0283                     u125_25:
  5328     0283  1C03               	skipc
  5329     0284  2A86               	goto	u125_21
  5330     0285  2A87               	goto	u125_20
  5331     0286                     u125_21:
  5332     0286  2A8E               	goto	i1l1837
  5333     0287                     u125_20:
  5334     0287                     i1l1835:
  5335                           
  5336                           ;main.c: 641:       pluse_width_LO = rising_edge_time - falling_edge_time;
  5337     0287  0870               	movf	ECCP3_CallBack@falling_edge_time,w
  5338     0288  022B               	subwf	ECCP3_CallBack@rising_edge_time,w
  5339     0289  00AF               	movwf	ECCP3_CallBack@pluse_width_LO
  5340     028A  0871               	movf	ECCP3_CallBack@falling_edge_time+1,w
  5341     028B  3B2C               	subwfb	ECCP3_CallBack@rising_edge_time+1,w
  5342     028C  00B0               	movwf	ECCP3_CallBack@pluse_width_LO+1
  5343                           
  5344                           ;main.c: 642:     } else {
  5345     028D  2A9A               	goto	i1l1839
  5346     028E                     i1l1837:
  5347                           
  5348                           ;main.c: 643:       pluse_width_LO = (0xffff - falling_edge_time) + rising_edge_time;
  5349     028E  0871               	movf	ECCP3_CallBack@falling_edge_time+1,w
  5350     028F  00F9               	movwf	??_ECCP3_CallBack+1
  5351     0290  0870               	movf	ECCP3_CallBack@falling_edge_time,w
  5352     0291  00F8               	movwf	??_ECCP3_CallBack
  5353     0292  09F8               	comf	??_ECCP3_CallBack,f
  5354     0293  09F9               	comf	??_ECCP3_CallBack+1,f
  5355     0294  082B               	movf	ECCP3_CallBack@rising_edge_time,w
  5356     0295  0778               	addwf	??_ECCP3_CallBack,w
  5357     0296  00AF               	movwf	ECCP3_CallBack@pluse_width_LO
  5358     0297  082C               	movf	ECCP3_CallBack@rising_edge_time+1,w
  5359     0298  3D79               	addwfc	??_ECCP3_CallBack+1,w
  5360     0299  00B0               	movwf	ECCP3_CallBack@pluse_width_LO+1
  5361     029A                     i1l1839:
  5362                           
  5363                           ;main.c: 645:     rise_edge_flag = 1;
  5364     029A  01B9               	clrf	ECCP3_CallBack@rise_edge_flag
  5365     029B  0AB9               	incf	ECCP3_CallBack@rise_edge_flag,f
  5366     029C                     i1l515:
  5367     029C  0008               	return
  5368     029D                     __end_of_ECCP3_CallBack:
  5369     007E                     btemp	set	126	;btemp
  5370     007E                     int$flags	set	126
  5371     007E                     wtemp0	set	126
  5372                           
  5373                           	psect	config
  5374                           
  5375                           ;Config register CONFIG1 @ 0x8007
  5376                           ;	Oscillator Selection
  5377                           ;	FOSC = INTOSC, INTOSC oscillator: I/O function on CLKIN pin
  5378                           ;	Watchdog Timer Enable
  5379                           ;	WDTE = OFF, WDT disabled
  5380                           ;	Power-up Timer Enable
  5381                           ;	PWRTE = ON, PWRT enabled
  5382                           ;	MCLR Pin Function Select
  5383                           ;	MCLRE = ON, MCLR/VPP pin function is MCLR
  5384                           ;	Flash Program Memory Code Protection
  5385                           ;	CP = OFF, Program memory code protection is disabled
  5386                           ;	Data Memory Code Protection
  5387                           ;	CPD = OFF, Data memory code protection is disabled
  5388                           ;	Brown-out Reset Enable
  5389                           ;	BOREN = ON, Brown-out Reset enabled
  5390                           ;	Clock Out Enable
  5391                           ;	CLKOUTEN = OFF, CLKOUT function is disabled. I/O or oscillator function on the CLKOUT 
      +                          pin
  5392                           ;	Internal/External Switchover
  5393                           ;	IESO = ON, Internal/External Switchover mode is enabled
  5394                           ;	Fail-Safe Clock Monitor Enable
  5395                           ;	FCMEN = ON, Fail-Safe Clock Monitor is enabled
  5396     8007                     	org	32775
  5397     8007  3FC4               	dw	16324
  5398                           
  5399                           ;Config register CONFIG2 @ 0x8008
  5400                           ;	Flash Memory Self-Write Protection
  5401                           ;	WRT = OFF, Write protection off
  5402                           ;	Voltage Regulator Capacitor Enable
  5403                           ;	VCAPEN = OFF, All VCAP pin functionality is disabled
  5404                           ;	PLL Enable
  5405                           ;	PLLEN = ON, 4x PLL enabled
  5406                           ;	Stack Overflow/Underflow Reset Enable
  5407                           ;	STVREN = ON, Stack Overflow or Underflow will cause a Reset
  5408                           ;	Brown-out Reset Voltage Selection
  5409                           ;	BORV = LO, Brown-out Reset Voltage (Vbor), low trip point selected.
  5410                           ;	Low-Voltage Programming Enable
  5411                           ;	LVP = OFF, High-voltage on MCLR/VPP must be used for programming
  5412     8008                     	org	32776
  5413     8008  1FFF               	dw	8191

Data Sizes:
    Strings     0
    Constant    0
    Data        64
    BSS         43
    Persistent  32
    Stack       0

Auto Spaces:
    Space          Size  Autos    Used
    COMMON           14      6      12
    BANK0            80      3      40
    BANK1            80      0      64
    BANK2            80      0       0
    BANK3            80      0       0
    BANK4            80      0       0
    BANK5            80      0       0
    BANK6            16      0       0

Pointer List with Targets:

    TMR0_InterruptHandler	PTR FTN()void  size(2) Largest target is 1
		 -> TMR0_DefaultInterruptHandler(), TMR0_EvenHandler(), NULL(), 

    TMR0_SetInterruptHandler@InterruptHandler	PTR FTN()void  size(2) Largest target is 1
		 -> TMR0_DefaultInterruptHandler(), TMR0_EvenHandler(), 


Critical Paths under _main in COMMON

    None.

Critical Paths under _INTERRUPT_InterruptManager in COMMON

    _INTERRUPT_InterruptManager->_ECCP3_CaptureISR
    _TMR0_CallBack->_TMR0_EvenHandler
    _ECCP3_CaptureISR->_ECCP3_CallBack

Critical Paths under _main in BANK0

    _main->_LED_output
    _TMR0_Initialize->_TMR0_SetInterruptHandler

Critical Paths under _INTERRUPT_InterruptManager in BANK0

    None.

Critical Paths under _main in BANK1

    None.

Critical Paths under _INTERRUPT_InterruptManager in BANK1

    None.

Critical Paths under _main in BANK2

    None.

Critical Paths under _INTERRUPT_InterruptManager in BANK2

    None.

Critical Paths under _main in BANK3

    None.

Critical Paths under _INTERRUPT_InterruptManager in BANK3

    None.

Critical Paths under _main in BANK4

    None.

Critical Paths under _INTERRUPT_InterruptManager in BANK4

    None.

Critical Paths under _main in BANK5

    None.

Critical Paths under _INTERRUPT_InterruptManager in BANK5

    None.

Critical Paths under _main in BANK6

    None.

Critical Paths under _INTERRUPT_InterruptManager in BANK6

    None.

Call Graph Tables:

 ---------------------------------------------------------------------------------
 (Depth) Function   	        Calls       Base Space   Used Autos Params    Refs
 ---------------------------------------------------------------------------------
 (0) _main                                                 0     0      0     555
                 _Exception_handling
                         _LED_output
                          _LoBeam_ON
                             _POS_ON
                  _SYSTEM_Initialize
           _TMR0_SetInterruptHandler
                        _check_input
                       _getFrameData
 ---------------------------------------------------------------------------------
 (1) _getFrameData                                         0     0      0       0
 ---------------------------------------------------------------------------------
 (1) _check_input                                          0     0      0       0
 ---------------------------------------------------------------------------------
 (1) _SYSTEM_Initialize                                    0     0      0     211
                   _ECCP3_Initialize
                   _EPWM1_Initialize
              _OSCILLATOR_Initialize
             _PIN_MANAGER_Initialize
                    _TMR0_Initialize
                    _TMR1_Initialize
                    _TMR2_Initialize
                     _WDT_Initialize
 ---------------------------------------------------------------------------------
 (2) _WDT_Initialize                                       0     0      0       0
 ---------------------------------------------------------------------------------
 (2) _TMR2_Initialize                                      0     0      0       0
 ---------------------------------------------------------------------------------
 (2) _TMR1_Initialize                                      0     0      0       0
 ---------------------------------------------------------------------------------
 (2) _TMR0_Initialize                                      0     0      0     211
           _TMR0_SetInterruptHandler
 ---------------------------------------------------------------------------------
 (1) _TMR0_SetInterruptHandler                             2     0      2     211
                                              0 BANK0      2     0      2
 ---------------------------------------------------------------------------------
 (2) _PIN_MANAGER_Initialize                               0     0      0       0
 ---------------------------------------------------------------------------------
 (2) _OSCILLATOR_Initialize                                0     0      0       0
 ---------------------------------------------------------------------------------
 (2) _EPWM1_Initialize                                     0     0      0       0
 ---------------------------------------------------------------------------------
 (2) _ECCP3_Initialize                                     0     0      0       0
 ---------------------------------------------------------------------------------
 (1) _LED_output                                           3     3      0     133
                                              0 BANK0      3     3      0
                             _DRL_ON
                          _LoBeam_ON
                             _POS_ON
 ---------------------------------------------------------------------------------
 (1) _LoBeam_ON                                            0     0      0       0
 ---------------------------------------------------------------------------------
 (2) _DRL_ON                                               0     0      0       0
 ---------------------------------------------------------------------------------
 (1) _Exception_handling                                   0     0      0       0
                             _POS_ON
 ---------------------------------------------------------------------------------
 (1) _POS_ON                                               0     0      0       0
 ---------------------------------------------------------------------------------
 Estimated maximum stack depth 2
 ---------------------------------------------------------------------------------
 (Depth) Function   	        Calls       Base Space   Used Autos Params    Refs
 ---------------------------------------------------------------------------------
 (4) _INTERRUPT_InterruptManager                           0     0      0     167
                   _ECCP3_CaptureISR
                           _TMR0_ISR
 ---------------------------------------------------------------------------------
 (5) _TMR0_ISR                                             0     0      0       0
                      _TMR0_CallBack
 ---------------------------------------------------------------------------------
 (6) _TMR0_CallBack                                        0     0      0       0
                                NULL *
       _TMR0_DefaultInterruptHandler *
                   _TMR0_EvenHandler *
 ---------------------------------------------------------------------------------
 (7) _TMR0_EvenHandler                                     1     1      0       0
                                              0 COMMON     1     1      0
 ---------------------------------------------------------------------------------
 (7) _TMR0_DefaultInterruptHandler                         0     0      0       0
 ---------------------------------------------------------------------------------
 (7) NULL(Fake)                                            0     0      0       0
 ---------------------------------------------------------------------------------
 (5) _ECCP3_CaptureISR                                     2     2      0     167
                                              4 COMMON     2     2      0
                     _ECCP3_CallBack
 ---------------------------------------------------------------------------------
 (6) _ECCP3_CallBack                                       4     2      2     120
                                              0 COMMON     4     2      2
 ---------------------------------------------------------------------------------
 Estimated maximum stack depth 7
 ---------------------------------------------------------------------------------

 Call Graph Graphs:

 _main (ROOT)
   _Exception_handling
     _POS_ON
   _LED_output
     _DRL_ON
     _LoBeam_ON
     _POS_ON
   _LoBeam_ON
   _POS_ON
   _SYSTEM_Initialize
     _ECCP3_Initialize
     _EPWM1_Initialize
     _OSCILLATOR_Initialize
     _PIN_MANAGER_Initialize
     _TMR0_Initialize
       _TMR0_SetInterruptHandler
     _TMR1_Initialize
     _TMR2_Initialize
     _WDT_Initialize
   _TMR0_SetInterruptHandler
   _check_input
   _getFrameData

 _INTERRUPT_InterruptManager (ROOT)
   _ECCP3_CaptureISR
     _ECCP3_CallBack
   _TMR0_ISR
     _TMR0_CallBack
       NULL(Fake) *
       _TMR0_DefaultInterruptHandler *
       _TMR0_EvenHandler *

 Address spaces:
Name               Size   Autos  Total    Cost      Usage
BIGRAM             1F0      0       0       0        0.0%
EEDATA             100      0       0       0        0.0%
NULL                 0      0       0       0        0.0%
CODE                 0      0       0       0        0.0%
BITCOMMON            E      0       0       1        0.0%
BITSFR0              0      0       0       1        0.0%
SFR0                 0      0       0       1        0.0%
COMMON               E      6       C       2       85.7%
BITSFR1              0      0       0       2        0.0%
SFR1                 0      0       0       2        0.0%
BITSFR2              0      0       0       3        0.0%
SFR2                 0      0       0       3        0.0%
STACK                0      0       0       3        0.0%
BITSFR3              0      0       0       4        0.0%
SFR3                 0      0       0       4        0.0%
ABS                  0      0      74       4        0.0%
BITBANK0            50      0       0       5        0.0%
BITSFR4              0      0       0       5        0.0%
SFR4                 0      0       0       5        0.0%
BANK0               50      3      28       6       50.0%
BITSFR5              0      0       0       6        0.0%
SFR5                 0      0       0       6        0.0%
BITBANK1            50      0       0       7        0.0%
BITSFR6              0      0       0       7        0.0%
SFR6                 0      0       0       7        0.0%
BANK1               50      0      40       8       80.0%
BITSFR7              0      0       0       8        0.0%
SFR7                 0      0       0       8        0.0%
BITBANK2            50      0       0       9        0.0%
BITSFR8              0      0       0       9        0.0%
SFR8                 0      0       0       9        0.0%
BANK2               50      0       0      10        0.0%
BITSFR9              0      0       0      10        0.0%
SFR9                 0      0       0      10        0.0%
BITBANK3            50      0       0      11        0.0%
BITSFR10             0      0       0      11        0.0%
SFR10                0      0       0      11        0.0%
BANK3               50      0       0      12        0.0%
BITSFR11             0      0       0      12        0.0%
SFR11                0      0       0      12        0.0%
BITBANK4            50      0       0      13        0.0%
BITSFR12             0      0       0      13        0.0%
SFR12                0      0       0      13        0.0%
BANK4               50      0       0      14        0.0%
BITSFR13             0      0       0      14        0.0%
SFR13                0      0       0      14        0.0%
BITBANK5            50      0       0      15        0.0%
BITSFR14             0      0       0      15        0.0%
SFR14                0      0       0      15        0.0%
BANK5               50      0       0      16        0.0%
BITSFR15             0      0       0      16        0.0%
SFR15                0      0       0      16        0.0%
BITBANK6            10      0       0      17        0.0%
BITSFR16             0      0       0      17        0.0%
SFR16                0      0       0      17        0.0%
BANK6               10      0       0      18        0.0%
BITSFR17             0      0       0      18        0.0%
SFR17                0      0       0      18        0.0%
BITSFR18             0      0       0      19        0.0%
SFR18                0      0       0      19        0.0%
DATA                 0      0      74      19        0.0%
BITSFR19             0      0       0      20        0.0%
SFR19                0      0       0      20        0.0%
BITSFR20             0      0       0      21        0.0%
SFR20                0      0       0      21        0.0%
BITSFR21             0      0       0      22        0.0%
SFR21                0      0       0      22        0.0%
BITSFR22             0      0       0      23        0.0%
SFR22                0      0       0      23        0.0%
BITSFR23             0      0       0      24        0.0%
SFR23                0      0       0      24        0.0%
BITSFR24             0      0       0      25        0.0%
SFR24                0      0       0      25        0.0%
BITSFR25             0      0       0      26        0.0%
SFR25                0      0       0      26        0.0%
BITSFR26             0      0       0      27        0.0%
SFR26                0      0       0      27        0.0%
BITSFR27             0      0       0      28        0.0%
SFR27                0      0       0      28        0.0%
BITSFR28             0      0       0      29        0.0%
SFR28                0      0       0      29        0.0%
BITSFR29             0      0       0      30        0.0%
SFR29                0      0       0      30        0.0%
BITSFR30             0      0       0      31        0.0%
SFR30                0      0       0      31        0.0%
BITSFR31             0      0       0      32        0.0%
SFR31                0      0       0      32        0.0%


Microchip Technology PIC Macro Assembler V2.46 build 20240104201356 
Symbol Table                                                                                   Thu Oct 30 15:43:29 2025

                                      _D2 0073                                        _D3 0041  
                                      l32 04AB                                        l35 04B0  
                                      l29 0433                                        l38 04E4  
                                      _CS 00A0                                        l78 048A  
                         _timer0ReloadVal 0075                                       l301 04D5  
                                     l310 040D                                       l302 04D7  
                                     l311 0410                                       l303 04DA  
                                     l135 03FD                                       l400 0143  
                                     l313 0412                                       l321 03CA  
                                     l410 0169                                       l331 03DC  
                                     l403 0159                                       l316 041A  
                                     l324 03CF                                       l420 0193  
                                     l412 016B                                       l404 0155  
                                     l309 040B                                       l333 03DF  
                                     l229 04BA                                       l157 045F  
                                     l406 0157                                       l342 01D0  
                                     l319 03D5                                       l423 01AC  
                                     l415 0183                                       l351 0083  
                                     l336 04DB                                       l328 03D9  
                                     l424 01A6                                       l416 017D  
                                     l360 0095                                       l352 007D  
                                     l440 03B0                                       l409 016D  
                                     l249 0497                                       l441 03B1  
                                     l338 04E0                                       l418 01BF  
                                     l370 00C1                                       l354 007F  
                                     l346 0067                                       l442 03B7  
                                     l434 039B                                       l419 0196  
                                     l363 00B1                                       l179 04D4  
                                     l195 04C2                                       l443 03B8  
                                     l435 039C                                       l428 01BC  
                                     l372 00C3                                       l364 00AA  
                                     l348 006C                                       l444 03BE  
                                     l436 03A2                                       l357 009A  
                                     l349 006A                                       l437 03A3  
                                     l366 00AC                                       l358 0093  
                                     l446 03BF                                       l438 03A9  
                                     l526 0326                                       l391 0131  
                                     l383 0107                                       l375 00DB  
                                     l439 03AA                                       l392 012D  
                                     l369 00C5                                       l394 012F  
                                     l387 011D                                       l379 00F1  
                                     l468 030D                                       l397 0145  
                                     l398 0141                                       _PR2 001B  
                         _timer1ReloadVal 0035                           _TMR2_Initialize 04BB  
                                     wreg 0009                  __end_of_ECCP3_Initialize 04BB  
                             ?_LED_output 0076                                      l2201 03E7  
                                    l2211 03F3                                      l2203 03EA  
                                    l2301 0416                                      l2221 04A8  
                                    l2213 03F7                                      l2205 03EC  
                                    l2303 0419                                      l2311 0054  
                                    l2231 048F                                      l2223 04A9  
                                    l2215 03F9                                      l2207 03EE  
                                    l2321 0063                                      l2305 0046  
                                    l2241 04B1                                      l2233 0491  
                                    l2217 03FB                                      l2209 03F0  
                                    l2225 04E1                                      l2411 0135  
                                    l2403 0121                                      l2331 0087  
                                    l2323 0071                                      l2315 005B  
                                    l2307 004D                                      l2243 04B4  
                                    l2235 0493                                      l2227 048B  
                                    l2219 04A5                                      l2251 04BB  
                                    l2421 014D                                      l2413 0139  
                                    l2405 0125                                      l2341 00A2  
                                    l2333 008B                                      l2325 0075  
                                    l2245 04B5                                      l2237 0494  
                                    l2229 048E                                      l2261 0481  
                                    l2253 04BE                                      l2501 03B5  
                                    l2431 0165                                      l2423 0151  
                                    l2415 013D                                      l2407 0129  
                                    l2351 00BD                                      l2343 00A6  
                                    l2335 008F                                      l2327 0079  
                                    l2319 0062                                      l2247 04B6  
                                    l2239 0495                                      l2271 0454  
                                    l2263 0482                                      l2255 04BF  
                                    l2503 03BC                                      l2511 02AB  
                                    l2281 03C0                                      l2441 017F  
                                    l2361 00D5                                      l2345 00AD  
                                    l2337 0096                                      l2329 0080  
                                    l2249 04B8                                      l2193 04CF  
                                    l2273 0456                                      l2265 0483  
                                    l2257 04C0                                      l2513 02AD  
                                    l2505 029D                                      l2283 03C6  
                                    l2435 0171                                      l2427 015D  
                                    l2419 0149                                      l2371 00E7  
                                    l2363 00D8                                      l2355 00C9  
                                    l2347 00B5                                      l2339 009E  
                                    l2195 03E0                                      l2275 0457  
                                    l2267 044C                                      l2259 047E  
                                    l2531 02D1                                      l2523 02BD  
                                    l2515 02B0                                      l2507 02A3  
                                    l2285 03CC                                      l2461 01A8  
                                    l2445 0187                                      l2437 0175  
                                    l2429 0161                                      l2381 00F9  
                                    l2373 00EB                                      l2357 00CD  
                                    l2349 00B9                                      l2197 03E3  
                                    l2277 0458                                      l2269 0451  
                                    l2293 041B                                      l2541 02E7  
                                    l2533 02D6                                      l2525 02C2  
                                    l2517 02B2                                      l2509 02A5  
                                    l2279 04DD                                      l2295 03FE  
                                    l2287 03D1                                      l2455 019A  
                                    l2447 018B                                      l2439 0179  
                                    l2391 010B                                      l2383 00FD  
                                    l2375 00EE                                      l2367 00DF  
                                    l2359 00D1                                      l2199 03E5  
                                    l2535 02DB                                      l2527 02C7  
                                    l2519 02B8                                      l2551 030E  
                                    l2297 0405                                      l2481 01C1  
                                    l2465 01B0                                      l2457 019E  
                                    l2449 018F                                      l2393 010F  
                                    l2385 0101                                      l2369 00E3  
                                    l2537 02E0                                      l2529 02CC  
                                    l2561 031F                                      l2553 0319  
                                    l2299 0413                                      l2483 01C6  
                                    l2467 01B4                                      l2459 01A2  
                                    l2395 0113                                      l2387 0104  
                                    l2379 00F5                                      l2475 01BF  
                                    l2491 0395                                      l2539 02E5  
                                    l2571 0331                                      l2563 0324  
                                    l2555 031B                                      l2485 01CA  
                                    l2469 01B8                                      l2397 0117  
                                    l2493 0399                                      l2549 02EA  
                                    l2581 0343                                      l2573 0337  
                                    l2565 0328                                      l2557 031D  
                                    l2399 011A                                      l2495 03A0  
                                    l2487 038F                                      l2583 0345  
                                    l2575 033C                                      l2567 032B  
                                    l2559 031E                                      l2497 03A7  
                                    l2489 0394                                      l2585 0346  
                                    l2577 033E                                      l2569 032E  
                                    l2499 03AE                                      l2587 0349  
                                    l2579 0342                                      u2200 03C6  
                                    u3000 02A3                                      u2201 03C5  
                                    u3001 02A2                                      u2210 03CA  
                                    u3010 02AB                                      u2211 03C9  
                                    u3011 02AA                                      u2220 03D9  
                                    u2300 0075                                      u3020 02B8  
                                    u2221 03D8                                      u2301 0074  
                                    u3021 02B7                                      _LATA 010C  
                                    u2230 0405                                      u2310 0079  
                                    u3030 0324                                      _LATB 010D  
                                    u2231 0404                                      u2311 0078  
                                    u3031 0323                                      _LATC 010E  
                                    u2240 040B                                      u2400 00AA  
                                    u2320 007D                                      u3040 0337  
                                    u2241 040A                                      u2401 00A9  
                                    u2321 007C                                      u3041 0336  
                                    _LATE 0110                                      u2410 00B5  
                                    u2330 0087                                      u2250 0053  
                                    u3050 033C                                      u2411 00B4  
                                    u2331 0086                                      u2251 0052  
                                    u3051 033B                                      u2500 00E3  
                                    u2420 00B9                                      u2340 008B  
                                    u2260 005A                                      u2501 00E2  
                                    u2421 00B8                                      u2341 008A  
                                    u2261 0059                                      u2510 00E7  
                                    u2430 00BD                                      u2350 008F  
                                    u2270 0061                                      u2190 04B0  
                                    u2511 00E6                                      u2431 00BC  
                                    u2351 008E                                      u2271 0060  
                                    u2191 04AF                                      u2600 0117  
                                    u2520 00EB                                      u2440 00C1  
                                    u2360 0093                                      u2280 0067  
                                    u2601 0116                                      u2521 00EA  
                                    u2441 00C0                                      u2361 0092  
                                    u2281 0066                                      u2610 0121  
                                    u2530 00F5                                      u2450 00C9  
                                    u2370 009E                                      u2290 0071  
                                    u2611 0120                                      u2531 00F4  
                                    u2451 00C8                                      u2371 009D  
                                    u2291 0070                                      u2700 014D  
                                    u2620 0125                                      u2540 00F9  
                                    u2460 00CD                                      u2380 00A2  
                                    u2701 014C                                      u2621 0124  
                                    u2541 00F8                                      u2461 00CC  
                                    u2381 00A1                                      u2710 0151  
                                    u2630 0129                                      u2550 00FD  
                                    u2470 00D1                                      u2390 00A6  
                                    u2711 0150                                      u2631 0128  
                                    u2551 00FC                                      u2471 00D0  
                                    u2391 00A5                                      u2800 017D  
                                    u2720 0155                                      u2640 012D  
                                    u2560 0101                                      u2480 00D5  
                                    u2801 017C                                      u2721 0154  
                                    u2641 012C                                      u2561 0100  
                                    u2481 00D4                                      u2810 0187  
                                    u2730 015D                                      u2650 0135  
                                    u2570 010B                                      u2490 00DF  
                                    u2811 0186                                      u2731 015C  
                                    u2651 0134                                      u2571 010A  
                                    u2491 00DE                                      u2900 01B4  
                                    u2820 018B                                      u2740 0161  
                                    u2660 0139                                      u2580 010F  
                                    u2901 01B3                                      u2821 018A  
                                    u2741 0160                                      u2661 0138  
                                    u2581 010E                                      u2910 01B8  
                                    u2830 018F                                      u2750 0165  
                                    u2670 013D                                      u2590 0113  
                                    u2911 01B7                                      u2831 018E  
                                    u2751 0164                                      u2671 013C  
                                    u2591 0112                                      u2920 01BC  
                                    u2840 0193                                      u2760 0169  
                                    u2680 0141                                      u2921 01BB  
                                    u2841 0192                                      u2761 0168  
                                    u2681 0140                                      u2930 01D0  
                                    u2850 019A                                      u2770 0171  
                                    u2690 0149                                      u2931 01CF  
                                    u2851 0199                                      u2771 0170  
                                    u2691 0148                                      u2860 019E  
                                    u2780 0175                                      u2940 0399  
                                    u2861 019D                                      u2781 0174  
                                    u2941 0398                                      u2870 01A2  
                                    u2790 0179                                      u2950 03A0  
                                    u2871 01A1                                      u2791 0178  
                                    u2951 039F                                      u2880 01A6  
                                    u2960 03A7                                      u2881 01A5  
                                    u2961 03A6                                      u2890 01B0  
                                    u2970 03AE                                      u2891 01AF  
                                    u2971 03AD                                      u2980 03B5  
                                    i1l53 0012                                      u2981 03B4  
                                    u2990 03BC                                      u2991 03BB  
                                    i1l58 0024                                      i1l59 0024  
                                    _PLLR 04D6                                      _TMR0 0015  
                                    _TMR2 001A                                      _WPUB 020D  
                                    _WPUE 0210                       ECCP3_CallBack@HI_us 0072  
                     ECCP3_CallBack@LO_us 003B                                      _main 030E  
                                    fsr0h 0005                                      fsr1h 0007  
                                    indf0 0000                                      fsr0l 0004  
                                    indf1 0001                                      fsr1l 0006  
                                    _step 0042                                      btemp 007E  
                     ECCP3_CallBack@fHead 0038                                      start 0026  
                 __end_of_TMR0_Initialize 0460            ??_TMR0_DefaultInterruptHandler 0076  
           __end_of_OSCILLATOR_Initialize 04B1                                     ?_main 0076  
                                   _T1CON 0018                                     _T2CON 001C  
                                   i1l232 047D                                     i1l172 044B  
                                   i1l182 04E5                                     i1l176 04A4  
                                   i1l505 0241                                     i1l507 025F  
                                   i1l515 029C                                     i1l508 0251  
                                   i1l519 046E                                     i1l492 026D  
                                   i1l494 0202                                     i1l496 0227  
                                   i1l498 022C                  __end_of_TMR0_EvenHandler 046F  
                                   _TMR1H 0017                                     _TMR1L 0016  
                                   _TRISA 008C                                     _TRISB 008D  
                                   _TRISC 008E                                     _TRISE 0090  
               ?_TMR0_SetInterruptHandler 0045                __end_of_Exception_handling 041B  
                        __end_of_TMR0_ISR 044C                            _WDT_Initialize 04E1  
                 __end_of_TMR1_Initialize 048B                                     pclath 000A  
                                   status 0003                                     wtemp0 007E  
            ECCP3_CallBack@pluse_width_HI 002D              ECCP3_CallBack@pluse_width_LO 002F  
                    __end_of_getFrameData 030E                           __initialization 0028  
                            __end_of_main 034F                   __end_of_TMR2_Initialize 04C3  
             ?_INTERRUPT_InterruptManager 0076                                    ??_main 0048  
         ECCP3_CallBack@falling_edge_time 0070                    __end_of_WDT_Initialize 04E5  
                                  _CCPR1H 0292                                    _CCPR3H 0312  
                                  _CCPR1L 0291                                    _CCPR3L 0311  
                                  _APFCON 011D                                    _ANSELA 018C  
                                  _ANSELB 018D                                    _BORCON 0116  
                                  _T1GCON 0019                                    u111_20 046B  
                                  u111_21 046A                                    i1l2141 0006  
                                  i1l2151 0020                                    i1l2143 000A  
                                  u120_20 0241                                    u120_21 0240  
                                  i1l2145 000E                                    i1l2147 0016  
                                  i1l1701 046D                                    i1l2149 001B  
                                  u113_20 049F                                    i1l1801 01EF  
                                  u113_21 049E                                    i1l1811 022E  
                                  i1l1803 01F6                                    u121_24 0249  
                                  u121_25 0248                                    i1l1821 0243  
                                  i1l1813 0235                                    i1l1805 021A  
                                  i1l1823 0253                                    i1l1815 0237  
                                  i1l1807 0220                                    i1l1831 026E  
                                  u114_20 01D8                                    i1l1833 0274  
                                  i1l1825 0263                                    i1l1817 0238  
                                  i1l1809 0224                                    u114_21 01D7  
                                  i1l1835 0287                                    i1l1827 0269  
                                  i1l1819 023B                                    u122_24 0259  
                                  i1l1837 028E                                    i1l1829 026A  
                                  u122_25 0258                                    i1l1861 0445  
                                  i1l1839 029A                                    i1l1791 01D1  
                                  i1l1695 0460                                    i1l1863 0448  
                                  u123_20 0269                                    u115_20 01E4  
                                  u211_20 000A                                    _DRL_ON 03C0  
                                  u123_21 0268                                    u115_21 01E3  
                                  i1l1793 01D8                                    i1l1865 046F  
                                  i1l1697 0465                                    i1l1857 0434  
                                  u211_21 0009                                    i1l1795 01DE  
                                  i1l1867 0471                                    i1l1699 046B  
                                  i1l1787 0498                                    i1l1859 0435  
                                  i1l1797 01E4                                    i1l1869 0476  
                                  i1l1789 049F                                    i1l1799 01E5  
                                  u124_20 0274                                    u116_20 01EF  
                                  u212_20 000E                                    u124_21 0273  
                                  u116_21 01EE                                    u212_21 000D  
                                  u116_25 01EB                                    u125_20 0287  
                                  u117_20 0220                                    u213_20 0016  
                                  u125_21 0286                                    u117_21 021F  
                                  u213_21 0015                                    u125_25 0283  
                                  u118_20 022C                                    u214_20 001B  
                                  u118_21 022B                                    u214_21 001A  
                                  u119_20 0235                                    u215_20 0020  
                                  u119_21 0234                                    u215_21 001F  
                                  u129_20 0445                                    u129_21 0444  
                                  _OSCCON 0099                                    _WDTCON 0097  
                                  _POS_ON 04DB                               LED_output@i 0047  
                            _CCPTMRS0bits 029E            ECCP3_CallBack@rising_edge_time 002B  
                                  _csFlag 0040                          ?_TMR0_Initialize 0076  
                       ?_ECCP3_CaptureISR 0076                           ?_WDT_Initialize 0076  
                      ??_ECCP3_CaptureISR 007A                                _fException 003E  
                   __end_of_TMR0_CallBack 04A5  TMR0_SetInterruptHandler@InterruptHandler 0045  
                   ECCP3_CallBack@diff_us 003A                          ?_TMR1_Initialize 0076  
                       _SYSTEM_Initialize 041B                   __end_of__initialization 0042  
                       __end_of_LoBeam_ON 04DB                        ?_SYSTEM_Initialize 0076  
                       ?_EPWM1_Initialize 0076                            __pcstackCOMMON 0076  
                            __pidataBANK1 034F                       ??_SYSTEM_Initialize 0047  
                               ?_TMR0_ISR 0076                        ??_EPWM1_Initialize 0045  
                        ?_TMR2_Initialize 0076                            _OPTION_REGbits 0095  
                   TMR0_ISR@CountCallBack 0031                              ??_LED_output 0045  
               __end_of_SYSTEM_Initialize 0434                         ?_ECCP3_Initialize 0076  
                              __pbssBANK0 0020                                   ?_DRL_ON 0076  
                      ??_ECCP3_Initialize 0045                                   ?_POS_ON 0076  
                              __pmaintext 030E          __end_of_TMR0_SetInterruptHandler 04D5  
                              ??_TMR0_ISR 0077                                __pintentry 0004  
                                 _CCP1CON 0293                                   _CCP3CON 0313  
                                 _ECCP1AS 0295                        __end_of_LED_output 01D1  
                            _getFrameData 029D                         ?_TMR0_EvenHandler 0076  
                                 _OSCTUNE 0098                                   _PWM1CON 0294  
                      ??_TMR0_EvenHandler 0076                        _Exception_handling 03FE  
                               _T10MS_CNT 003F                       ?_Exception_handling 0076  
                          _ECCP3_CallBack 01D1                                   __ptext1 029D  
                                 __ptext2 038F                                   __ptext3 041B  
                                 __ptext4 04E1                                   __ptext5 04BB  
                                 __ptext6 047E                                   __ptext7 044C  
                                 __ptext8 04CF                                   __ptext9 03E0  
                               _T1CONbits 0018                     _OSCILLATOR_Initialize 04A5  
                               _T2CONbits 001C                             ??_check_input 0045  
                  ECCP3_CaptureISR@module 007A                  ??_PIN_MANAGER_Initialize 0045  
                           _data_1byte_OK 0044                                   _rx_data 0074  
                    ??_Exception_handling 0045                                   clrloop0 04CA  
                    end_of_initialization 0042                                   init_ram 04C3  
                                 initloop 04C4                               _fException2 003D  
                  __end_of_ECCP3_CallBack 029D                    ECCP3_CallBack@data_cnt 0037  
                        ??_WDT_Initialize 0045                  _TMR0_SetInterruptHandler 04CF  
                               _PORTBbits 000D                       __end_of_check_input 03C0  
                          __end_of_DRL_ON 03E0                            __end_of_POS_ON 04E1  
                               _LoBeam_ON 04D5                           ?_ECCP3_CallBack 0076  
                  ?_OSCILLATOR_Initialize 0076                       start_initialization 0028  
                          LED_output@crc8 0046                                  ??_DRL_ON 0045  
                                ??_POS_ON 0045                                ?_LoBeam_ON 0076  
                               _fFrame_OK 0043                               __pdataBANK1 00A0  
                               _fLampSide 003C                               __pbssCOMMON 0070  
                             _check_input 038F                                 ___latbits 0002  
                           __pcstackBANK0 0045                     _TMR0_InterruptHandler 0033  
                  _PIN_MANAGER_Initialize 03E0              ??_INTERRUPT_InterruptManager 007C  
                           _TMR0_CallBack 0498                         ??_TMR0_Initialize 0047  
                        _ECCP3_CaptureISR 046F                                  _LATAbits 010C  
                                _LATBbits 010D                                  _LATCbits 010E  
                               clear_ram0 04C9                                  _PIE3bits 0093  
              ??_TMR0_SetInterruptHandler 0047                                  _PIR1bits 0011  
                                _PIR3bits 0013                               ??_LoBeam_ON 0045  
                                _TMR0_ISR 0434                                  _PSTR1CON 0296  
                       ??_TMR1_Initialize 0045                          _EPWM1_Initialize 048B  
                          ?_TMR0_CallBack 0076                         ??_TMR2_Initialize 0045  
                        ??_ECCP3_CallBack 0078                          _ECCP3_Initialize 04B1  
                 ??_OSCILLATOR_Initialize 0045               ECCP3_CallBack@capturedValue 0076  
            ECCP3_CallBack@rise_edge_flag 0039                                  _data_buf 0020  
                                __ptext10 04A5                                  __ptext11 048B  
                                __ptext20 0498                                  __ptext12 04B1  
                                __ptext21 04E5                                  __ptext13 0046  
                              _T1GCONbits 0019                                  __ptext22 0460  
                                __ptext14 04D5                                  __ptext23 046F  
                                __ptext15 03C0                                  __ptext24 01D1  
                                __ptext16 03FE                                  __ptext17 04DB  
                                __ptext19 0434                          _TMR0_EvenHandler 0460  
    __end_of_TMR0_DefaultInterruptHandler 04E6              _TMR0_DefaultInterruptHandler 04E5  
                                int$flags 007E        __end_of_INTERRUPT_InterruptManager 0026  
              _INTERRUPT_InterruptManager 0004                             ?_getFrameData 0076  
                              _INTCONbits 000B                              ?_check_input 0076  
                         ??_TMR0_CallBack 0077                                _LED_output 0046  
                                intlevel1 0000                   ?_PIN_MANAGER_Initialize 0076  
           ?_TMR0_DefaultInterruptHandler 0076                            ??_getFrameData 0045  
                __end_of_ECCP3_CaptureISR 047E                                _OPTION_REG 0095  
                         _TMR0_Initialize 044C            __end_of_PIN_MANAGER_Initialize 03FE  
                         _TMR1_Initialize 047E                  __end_of_EPWM1_Initialize 0498  
